Certificate:
    Data:
        Version: 3 (0x2)
        Serial Number: 4097 (0x1001)
        Signature Algorithm: sha256WithRSAEncryption
        Issuer: O=NodeOPCUA, CN=NodeOPCUA
        Validity
            Not Before: May  1 13:27:44 2017 GMT
            Not After : May  1 13:27:44 2018 GMT
        Subject: O=NodeOPCUA, CN=NodeOPCUA
        Subject Public Key Info:
            Public Key Algorithm: rsaEncryption
            RSA Public Key: (1024 bit)
                Modulus (1024 bit):
                    00:9e:f3:01:90:c6:b5:bb:5b:9b:dc:98:35:d8:53:
                    73:b6:b9:80:6a:fa:b9:3d:79:66:ae:7d:fa:92:c7:
                    98:ff:2b:0b:6e:3c:54:05:83:b6:ee:98:5e:02:0f:
                    14:59:a6:3f:1a:be:7d:c5:ff:ee:30:bc:a7:c1:31:
                    0a:a6:be:6c:ac:4f:ab:7f:8e:d9:76:b7:79:0d:20:
                    7f:61:06:e6:b1:1b:4f:5c:39:87:85:77:e7:13:06:
                    e1:3c:27:23:8a:77:90:3c:7f:37:96:b6:c3:d6:cc:
                    f4:d6:fc:0f:71:dc:60:da:63:9a:1d:a0:99:0c:63:
                    b9:4a:0d:d9:93:ef:8c:b6:2f
                Exponent: 65537 (0x10001)
        X509v3 extensions:
            X509v3 Basic Constraints: critical
                CA:FALSE
            X509v3 Subject Key Identifier: 
                13:12:8A:59:0C:B4:3E:48:F4:E5:B9:53:FB:DB:03:D2:BC:62:88:AA
            X509v3 Authority Key Identifier: 
                keyid:13:12:8A:59:0C:B4:3E:48:F4:E5:B9:53:FB:DB:03:D2:BC:62:88:AA
                DirName:/O=NodeOPCUA/CN=NodeOPCUA
                serial:10:01

            X509v3 Subject Alternative Name: 
                URI:urn:localhost:NodeOPCUA-Client, DNS:localhost, DNS:localhost
            Netscape Comment: 
                OpenSSL Generated Certificate
            X509v3 Key Usage: critical
                Digital Signature, Non Repudiation, Key Encipherment, Data Encipherment, Key Agreement, Certificate Sign
            X509v3 Extended Key Usage: critical
                TLS Web Server Authentication, TLS Web Client Authentication
    Signature Algorithm: sha256WithRSAEncryption
        38:8b:3a:66:c6:06:6d:35:b2:3c:86:ea:d6:bb:20:a6:e8:6b:
        ec:89:48:7c:8f:79:35:9a:f4:be:12:b9:b8:3b:bb:61:23:32:
        af:88:23:6b:b0:bd:ff:2c:b4:1e:cc:de:9c:18:b9:82:bd:94:
        cf:2e:15:33:aa:6e:59:4b:cb:f1:b7:bd:80:11:a5:0e:b2:f0:
        00:f4:ee:b9:f3:70:ff:f6:73:69:8a:a6:76:d3:f9:99:a2:5d:
        ed:a4:a5:bd:5d:8b:34:81:f1:50:5f:36:c2:f3:74:9c:0e:08:
        04:c2:1a:a9:ec:13:4f:fd:4a:f9:f6:6d:12:00:10:14:20:f2:
        66:82
-----BEGIN CERTIFICATE-----
MIIC7jCCAlegAwIBAgICEAEwDQYJKoZIhvcNAQELBQAwKDESMBAGA1UEChMJTm9k
ZU9QQ1VBMRIwEAYDVQQDEwlOb2RlT1BDVUEwHhcNMTcwNTAxMTMyNzQ0WhcNMTgw
NTAxMTMyNzQ0WjAoMRIwEAYDVQQKEwlOb2RlT1BDVUExEjAQBgNVBAMTCU5vZGVP
UENVQTCBnzANBgkqhkiG9w0BAQEFAAOBjQAwgYkCgYEAnvMBkMa1u1ub3Jg12FNz
trmAavq5PXlmrn36kseY/ysLbjxUBYO27pheAg8UWaY/Gr59xf/uMLynwTEKpr5s
rE+rf47Zdrd5DSB/YQbmsRtPXDmHhXfnEwbhPCcjineQPH83lrbD1sz01vwPcdxg
2mOaHaCZDGO5Sg3Zk++Mti8CAwEAAaOCASUwggEhMAwGA1UdEwEB/wQCMAAwHQYD
VR0OBBYEFBMSilkMtD5I9OW5U/vbA9K8YoiqMFEGA1UdIwRKMEiAFBMSilkMtD5I
9OW5U/vbA9K8YoiqoSykKjAoMRIwEAYDVQQKEwlOb2RlT1BDVUExEjAQBgNVBAMT
CU5vZGVPUENVQYICEAEwPwYDVR0RBDgwNoYedXJuOmxvY2FsaG9zdDpOb2RlT1BD
VUEtQ2xpZW50gglsb2NhbGhvc3SCCWxvY2FsaG9zdDAsBglghkgBhvhCAQ0EHxYd
T3BlblNTTCBHZW5lcmF0ZWQgQ2VydGlmaWNhdGUwDgYDVR0PAQH/BAQDAgL8MCAG
A1UdJQEB/wQWMBQGCCsGAQUFBwMBBggrBgEFBQcDAjANBgkqhkiG9w0BAQsFAAOB
gQA4izpmxgZtNbI8hurWuyCm6GvsiUh8j3k1mvS+Erm4O7thIzKviCNrsL3/LLQe
zN6cGLmCvZTPLhUzqm5ZS8vxt72AEaUOsvAA9O6583D/9nNpiqZ20/mZol3tpKW9
XYs0gfFQXzbC83ScDggEwhqp7BNP/Ur59m0SABAUIPJmgg==
-----END CERTIFICATE-----
