Certificate:
    Data:
        Version: 3 (0x2)
        Serial Number: 4098 (0x1002)
        Signature Algorithm: sha256WithRSAEncryption
        Issuer: C=FR, ST=IDF, L=Paris, O=Local NODE-OPCUA Certificate Authority, CN=NodeOPCUA-CA
        Validity
            Not Before: May  1 13:27:44 2017 GMT
            Not After : May  1 13:27:44 2018 GMT
        Subject: C=FR, O=NodeOPCUA, CN=NodeOPCUA
        Subject Public Key Info:
            Public Key Algorithm: rsaEncryption
            RSA Public Key: (2048 bit)
                Modulus (2048 bit):
                    00:d2:df:12:cf:bd:44:b1:4b:22:c9:34:b9:0c:ad:
                    8a:db:98:46:61:16:1d:fd:7b:4e:b8:34:67:f1:fe:
                    73:b0:5c:45:be:19:c6:69:13:8e:35:99:51:2a:00:
                    11:60:64:6d:e7:32:fe:d2:be:67:79:35:6b:9d:21:
                    ad:08:41:92:56:83:55:63:fe:fd:af:73:0b:3e:76:
                    1d:d3:01:5c:fd:2f:11:34:4b:fb:1c:46:38:4a:be:
                    eb:92:62:b9:97:f2:de:c9:75:66:55:52:3e:8a:56:
                    f3:a5:16:c6:c3:84:48:28:3a:80:8b:c9:ee:b3:70:
                    c4:14:c8:b4:ea:6a:05:0b:de:58:3e:f7:bc:d6:8f:
                    8f:e7:f5:63:3a:c1:53:8b:bf:6d:09:8a:71:ef:b7:
                    a0:80:63:f2:d4:93:02:e1:53:03:1c:08:9e:1e:bf:
                    b4:02:de:69:85:d3:42:a4:24:93:69:7e:1c:4e:3c:
                    4f:53:5a:3e:90:4e:4c:d5:d1:26:02:8e:3c:75:5b:
                    09:28:36:00:27:6d:30:fc:05:d3:d7:f8:17:89:24:
                    a5:65:db:b4:26:ae:9a:6e:e9:0e:ff:4b:17:ea:cb:
                    16:d7:e9:8c:35:0f:b7:ee:52:5e:21:63:aa:33:fa:
                    18:24:bc:a1:5e:4a:a7:79:92:30:93:bd:f9:58:a4:
                    1e:fd
                Exponent: 65537 (0x10001)
        X509v3 extensions:
            X509v3 Basic Constraints: critical
                CA:FALSE
            X509v3 Subject Key Identifier: 
                A8:9C:28:6C:16:B4:B6:FC:57:B1:63:9C:77:E0:B4:B2:42:2A:FD:7E
            X509v3 Authority Key Identifier: 
                keyid:8A:FF:87:2D:B2:76:79:F7:6F:3C:79:77:5B:49:6C:9C:49:03:E6:A4
                DirName:/C=FR/ST=IDF/L=Paris/O=Local NODE-OPCUA Certificate Authority/CN=NodeOPCUA-CA
                serial:D6:7C:D6:E6:02:18:3C:DA

            X509v3 Subject Alternative Name: 
                URI:urn:localhost:NodeOPCUA-Client, DNS:localhost, DNS:localhost
            Netscape Comment: 
                OpenSSL Generated Certificate
            X509v3 Key Usage: critical
                Digital Signature, Non Repudiation, Key Encipherment, Data Encipherment, Key Agreement, Certificate Sign
            X509v3 Extended Key Usage: critical
                TLS Web Server Authentication, TLS Web Client Authentication
    Signature Algorithm: sha256WithRSAEncryption
        8c:63:32:1d:d4:ee:21:8f:f0:f5:c0:43:58:19:28:47:c5:42:
        d9:6c:b7:10:59:4b:4f:64:ab:ba:0d:81:5e:b3:d0:ce:3e:a5:
        e9:86:f6:8a:2f:77:9b:f3:05:09:80:c5:69:a6:6f:33:c8:fb:
        24:69:cf:c0:4e:60:6b:1a:5c:30:da:dd:6b:f9:46:93:7f:32:
        14:6c:11:cc:6b:34:00:6c:63:9b:74:1b:69:6e:f6:37:20:0d:
        0b:89:bc:0f:90:0d:57:94:57:0d:ee:f8:95:65:a1:65:a8:68:
        05:fb:f3:17:80:1b:82:fe:60:1a:22:88:76:4a:7d:0e:08:fc:
        e2:28:b5:66:ed:e1:63:05:5c:71:41:4e:f5:34:9d:3c:4c:8f:
        37:b7:e4:30:f7:99:be:5e:52:56:c2:3a:d9:3d:c4:4f:91:91:
        7b:a6:72:f0:20:9c:6d:8e:41:38:e0:e8:91:48:60:5a:a6:f7:
        0b:f6:a3:76:d7:6e:13:b1:5e:a7:f0:f1:3b:ae:78:8d:e2:82:
        67:c8:53:9a:33:a0:a0:58:bf:a1:f3:b2:a2:36:3c:0c:ae:a8:
        10:2e:2f:e6:c8:12:b3:f1:f8:71:0f:6f:0c:f7:1f:6d:38:f3:
        12:5e:72:fc:d3:19:f7:fd:4c:16:a9:c0:bf:bf:86:08:89:a8:
        c6:7a:6b:33
-----BEGIN CERTIFICATE-----
MIIEoDCCA4igAwIBAgICEAIwDQYJKoZIhvcNAQELBQAwczELMAkGA1UEBhMCRlIx
DDAKBgNVBAgTA0lERjEOMAwGA1UEBxMFUGFyaXMxLzAtBgNVBAoTJkxvY2FsIE5P
REUtT1BDVUEgQ2VydGlmaWNhdGUgQXV0aG9yaXR5MRUwEwYDVQQDEwxOb2RlT1BD
VUEtQ0EwHhcNMTcwNTAxMTMyNzQ0WhcNMTgwNTAxMTMyNzQ0WjA1MQswCQYDVQQG
EwJGUjESMBAGA1UECgwJTm9kZU9QQ1VBMRIwEAYDVQQDDAlOb2RlT1BDVUEwggEi
MA0GCSqGSIb3DQEBAQUAA4IBDwAwggEKAoIBAQDS3xLPvUSxSyLJNLkMrYrbmEZh
Fh39e064NGfx/nOwXEW+GcZpE441mVEqABFgZG3nMv7Svmd5NWudIa0IQZJWg1Vj
/v2vcws+dh3TAVz9LxE0S/scRjhKvuuSYrmX8t7JdWZVUj6KVvOlFsbDhEgoOoCL
ye6zcMQUyLTqagUL3lg+97zWj4/n9WM6wVOLv20JinHvt6CAY/LUkwLhUwMcCJ4e
v7QC3mmF00KkJJNpfhxOPE9TWj6QTkzV0SYCjjx1WwkoNgAnbTD8BdPX+BeJJKVl
27Qmrppu6Q7/SxfqyxbX6Yw1D7fuUl4hY6oz+hgkvKFeSqd5kjCTvflYpB79AgMB
AAGjggF6MIIBdjAMBgNVHRMBAf8EAjAAMB0GA1UdDgQWBBSonChsFrS2/FexY5x3
4LSyQir9fjCBpQYDVR0jBIGdMIGagBSK/4ctsnZ59288eXdbSWycSQPmpKF3pHUw
czELMAkGA1UEBhMCRlIxDDAKBgNVBAgTA0lERjEOMAwGA1UEBxMFUGFyaXMxLzAt
BgNVBAoTJkxvY2FsIE5PREUtT1BDVUEgQ2VydGlmaWNhdGUgQXV0aG9yaXR5MRUw
EwYDVQQDEwxOb2RlT1BDVUEtQ0GCCQDWfNbmAhg82jA/BgNVHREEODA2hh51cm46
bG9jYWxob3N0Ok5vZGVPUENVQS1DbGllbnSCCWxvY2FsaG9zdIIJbG9jYWxob3N0
MCwGCWCGSAGG+EIBDQQfFh1PcGVuU1NMIEdlbmVyYXRlZCBDZXJ0aWZpY2F0ZTAO
BgNVHQ8BAf8EBAMCAvwwIAYDVR0lAQH/BBYwFAYIKwYBBQUHAwEGCCsGAQUFBwMC
MA0GCSqGSIb3DQEBCwUAA4IBAQCMYzId1O4hj/D1wENYGShHxULZbLcQWUtPZKu6
DYFes9DOPqXphvaKL3eb8wUJgMVppm8zyPskac/ATmBrGlww2t1r+UaTfzIUbBHM
azQAbGObdBtpbvY3IA0LibwPkA1XlFcN7viVZaFlqGgF+/MXgBuC/mAaIoh2Sn0O
CPziKLVm7eFjBVxxQU71NJ08TI83t+Qw95m+XlJWwjrZPcRPkZF7pnLwIJxtjkE4
4OiRSGBapvcL9qN2124TsV6n8PE7rniN4oJnyFOaM6CgWL+h87KiNjwMrqgQLi/m
yBKz8fhxD28M9x9tOPMSXnL80xn3/UwWqcC/v4YIiajGemsz
-----END CERTIFICATE-----
Certificate:
    Data:
        Version: 1 (0x0)
        Serial Number:
            d6:7c:d6:e6:02:18:3c:da
        Signature Algorithm: itu-t
        Issuer: C=FR, ST=IDF, L=Paris, O=Local NODE-OPCUA Certificate Authority, CN=NodeOPCUA-CA
        Validity
            Not Before: May  2 13:27:45 2017 GMT
            Not After : Apr 30 13:27:45 2027 GMT
        Subject: C=FR, ST=IDF, L=Paris, O=Local NODE-OPCUA Certificate Authority, CN=NodeOPCUA-CA
        Subject Public Key Info:
            Public Key Algorithm: rsaEncryption
            RSA Public Key: (2048 bit)
                Modulus (2048 bit):
                    00:cf:64:b2:28:0f:3c:d7:88:38:91:a3:76:2f:ba:
                    7b:98:76:46:4b:c3:a0:8d:72:fa:7b:f1:33:fd:2b:
                    9f:bc:ae:2d:61:ae:6a:3c:24:03:3b:bd:22:52:70:
                    2c:e8:a3:59:fc:6e:ed:8f:f1:db:b3:7b:c0:fe:8e:
                    18:56:db:55:ee:b5:ce:e1:ff:7d:1b:3f:ca:b3:9a:
                    b6:45:2c:2d:06:44:04:d2:92:0a:c9:f7:3a:79:72:
                    50:3d:ca:2e:9c:d1:6d:74:2a:54:e0:db:1f:c1:d9:
                    ed:ca:55:bb:c9:3c:5d:2e:bb:2f:c3:1c:94:6e:b4:
                    bf:85:d2:f8:77:ed:01:63:62:e4:d5:88:44:62:51:
                    9d:7b:7f:bc:25:cc:7d:42:3f:e8:d4:8b:b8:ad:4e:
                    60:47:47:d1:61:f6:cb:56:b9:b1:5b:8d:26:1b:c4:
                    cd:fb:20:bb:af:3f:6e:ca:3d:65:23:99:dd:1e:0c:
                    73:43:92:dc:4c:61:4b:fa:c6:25:db:47:54:e8:6b:
                    5b:72:e9:74:5c:dd:a4:47:00:98:49:37:59:6f:07:
                    2b:56:a9:a2:9b:23:70:16:7a:87:dc:cc:ac:6b:f8:
                    11:49:b3:52:c3:11:4f:2a:ea:ef:ff:35:42:28:e5:
                    2c:2a:f0:2e:70:1b:73:64:b1:12:f8:d9:65:0b:06:
                    c9:b9
                Exponent: 65537 (0x10001)
    Signature Algorithm: itu-t
-----BEGIN CERTIFICATE-----
MIIE3TCCA8WgAwIBAgIJANZ81uYCGDzaMA0GCSqGSIb3DQEBCwUAMHMxCzAJBgNV
BAYTAkZSMQwwCgYDVQQIEwNJREYxDjAMBgNVBAcTBVBhcmlzMS8wLQYDVQQKEyZM
b2NhbCBOT0RFLU9QQ1VBIENlcnRpZmljYXRlIEF1dGhvcml0eTEVMBMGA1UEAxMM
Tm9kZU9QQ1VBLUNBMB4XDTE3MDUwMjEzMjc0NVoXDTI3MDQzMDEzMjc0NVowczEL
MAkGA1UEBhMCRlIxDDAKBgNVBAgTA0lERjEOMAwGA1UEBxMFUGFyaXMxLzAtBgNV
BAoTJkxvY2FsIE5PREUtT1BDVUEgQ2VydGlmaWNhdGUgQXV0aG9yaXR5MRUwEwYD
VQQDEwxOb2RlT1BDVUEtQ0EwggEiMA0GCSqGSIb3DQEBAQUAA4IBDwAwggEKAoIB
AQDPZLIoDzzXiDiRo3YvunuYdkZLw6CNcvp78TP9K5+8ri1hrmo8JAM7vSJScCzo
o1n8bu2P8duze8D+jhhW21Xutc7h/30bP8qzmrZFLC0GRATSkgrJ9zp5clA9yi6c
0W10KlTg2x/B2e3KVbvJPF0uuy/DHJRutL+F0vh37QFjYuTViERiUZ17f7wlzH1C
P+jUi7itTmBHR9Fh9stWubFbjSYbxM37ILuvP27KPWUjmd0eDHNDktxMYUv6xiXb
R1Toa1ty6XRc3aRHAJhJN1lvBytWqaKbI3AWeofczKxr+BFJs1LDEU8q6u//NUIo
5Swq8C5wG3NksRL42WULBsm5AgMBAAGjggFyMIIBbjAdBgNVHQ4EFgQUiv+HLbJ2
efdvPHl3W0lsnEkD5qQwgaUGA1UdIwSBnTCBmoAUiv+HLbJ2efdvPHl3W0lsnEkD
5qShd6R1MHMxCzAJBgNVBAYTAkZSMQwwCgYDVQQIEwNJREYxDjAMBgNVBAcTBVBh
cmlzMS8wLQYDVQQKEyZMb2NhbCBOT0RFLU9QQ1VBIENlcnRpZmljYXRlIEF1dGhv
cml0eTEVMBMGA1UEAxMMTm9kZU9QQ1VBLUNBggkA1nzW5gIYPNowDAYDVR0TBAUw
AwEB/zAOBgNVHQ8BAf8EBAMCAQYwVwYJYIZIAYb4QgENBEoWSENBIENlcnRpZmlj
YXRlIGdlbmVyYXRlZCBieSBOb2RlLU9QQ1VBIENlcnRpZmljYXRlIHV0aWxpdHkg
dXNpbmcgb3BlbnNzbDAuBgNVHR8EJzAlMCOgIaAfhh1odHRwOi8vbG9jYWxob3N0
Ojg5MDAvY3JsLnBlbTANBgkqhkiG9w0BAQsFAAOCAQEAhOV1H8KMzSfzS/usRVsU
/i1/kuqLapXBccAA67fGa2TsuOMXglXy2gT0mg4bInnYnFI/NIEiri/sRTAe+WK1
36BY09gqGJKX8vJpRkIJ6OLxm6DI30+LK7wOdxyaqlSFUfKUzCbubTclpE0m/Lsi
K/TG/X3Tvlc56WKiwmY5uMHLqyLZRDn9Z+Q9wr+trsnRv9DuzDjQec3EXsAhQWZj
dl2xmPjNddnsSAxcKzO4JleebQylZUR3fJGkSRPE9/ODiUJ++Smy8nU5+fIVh4yw
lpvDmBnoInasqWogjL6E2sv/4EBMakTjiBuYC/NA+vKlr+PBO5RMZWppOJwYcfDn
aQ==
-----END CERTIFICATE-----
