Certificate:
    Data:
        Version: 3 (0x2)
        Serial Number: 4096 (0x1000)
        Signature Algorithm: sha256WithRSAEncryption
        Issuer: C=FR, ST=IDF, L=Paris, O=Fake CA for Test, CN=NodeOPCUA
        Validity
            Not Before: Apr 11 09:10:35 2017 GMT
            Not After : Apr 11 09:10:35 2018 GMT
        Subject: O=NodeOPCUA, CN=NodeOPCUA
        Subject Public Key Info:
            Public Key Algorithm: rsaEncryption
            RSA Public Key: (1024 bit)
                Modulus (1024 bit):
                    00:d2:c1:fe:90:83:c9:59:5e:58:0f:68:2d:ca:9b:
                    44:e8:45:ba:d4:eb:ff:e4:27:18:6b:75:dc:20:82:
                    0e:a6:15:62:2c:4a:40:d2:bf:b0:ec:93:56:9b:d5:
                    7a:3a:4e:04:80:ac:60:87:e0:c2:5d:81:5e:ed:7f:
                    d6:0d:7e:31:cc:47:18:2b:79:99:df:f2:db:a8:23:
                    4f:ee:de:9d:7f:eb:39:c8:b5:1a:8f:b7:b3:0b:f4:
                    f3:1b:70:f4:b6:be:3b:15:4c:5e:33:82:0b:c1:37:
                    b6:c2:76:b0:d1:b7:d1:c5:89:b5:cc:91:01:53:9f:
                    2d:fd:69:53:c5:bf:7e:2c:c5
                Exponent: 65537 (0x10001)
        X509v3 extensions:
            X509v3 Basic Constraints: critical
                CA:FALSE
            X509v3 Subject Key Identifier: 
                81:34:0D:A9:16:D5:89:B7:4D:DA:1F:C7:01:84:9E:C3:06:A8:3D:94
            X509v3 Authority Key Identifier: 
                keyid:77:9B:44:5F:3A:C0:AD:26:EF:E1:9D:BA:B2:25:FC:90:0F:5D:59:77
                DirName:/C=FR/ST=IDF/L=Paris/O=Fake CA for Test/CN=NodeOPCUA
                serial:B9:27:C6:02:5B:D1:34:0B

            X509v3 Subject Alternative Name: 
                URI:urn:localhost:NodeOPCUA-Client, DNS:localhost, DNS:localhost
            Netscape Comment: 
                OpenSSL Generated Certificate
            X509v3 Key Usage: critical
                Digital Signature, Non Repudiation, Key Encipherment, Data Encipherment, Key Agreement, Certificate Sign
            X509v3 Extended Key Usage: critical
                TLS Web Server Authentication, TLS Web Client Authentication
    Signature Algorithm: sha256WithRSAEncryption
        2e:b3:bf:0f:c8:56:e4:78:2c:e7:60:86:40:3c:d5:ef:98:33:
        de:42:8a:de:23:b1:0e:15:a1:3b:1d:a3:27:6b:53:52:e0:32:
        a4:d4:d2:c0:9f:b0:fa:82:e4:de:c9:77:1f:85:8a:67:ca:d0:
        bb:5c:45:9c:c9:24:32:47:e0:9d:06:ae:e9:e5:58:c3:26:76:
        7a:20:a1:bb:68:82:8e:95:bc:bb:f0:1b:c5:fc:9a:b6:53:cb:
        87:f1:20:1f:d3:ec:84:13:4a:f3:a1:1c:11:3b:74:eb:16:5c:
        ae:80:e8:40:10:1f:a7:ae:9b:81:17:23:7b:c0:3f:1a:d3:ea:
        e5:33:ab:06:bb:9c:c0:f6:75:cd:fa:c8:41:fb:02:84:56:53:
        74:a0:5e:39:44:32:19:f8:b0:a1:7a:d0:65:0d:58:b0:b4:b8:
        fc:cd:70:bd:a9:59:38:58:d4:8f:68:41:ef:72:9c:7c:8c:a8:
        a5:8b:bd:8f:3d:ed:bb:38:d3:52:f4:45:9a:8a:c5:26:be:38:
        3a:a4:e2:ad:d5:c2:b4:ab:c3:2c:cc:f7:09:81:fa:fd:47:c5:
        2a:4f:05:6a:70:9d:db:7a:36:c6:98:33:4d:c5:4b:38:5a:d4:
        69:84:b2:20:37:7c:dc:49:5d:5b:4f:4e:d2:f8:f1:b8:04:fb:
        9b:cc:09:f4
-----BEGIN CERTIFICATE-----
MIID3TCCAsWgAwIBAgICEAAwDQYJKoZIhvcNAQELBQAwWjELMAkGA1UEBhMCRlIx
DDAKBgNVBAgTA0lERjEOMAwGA1UEBxMFUGFyaXMxGTAXBgNVBAoTEEZha2UgQ0Eg
Zm9yIFRlc3QxEjAQBgNVBAMTCU5vZGVPUENVQTAeFw0xNzA0MTEwOTEwMzVaFw0x
ODA0MTEwOTEwMzVaMCgxEjAQBgNVBAoTCU5vZGVPUENVQTESMBAGA1UEAxMJTm9k
ZU9QQ1VBMIGfMA0GCSqGSIb3DQEBAQUAA4GNADCBiQKBgQDSwf6Qg8lZXlgPaC3K
m0ToRbrU6//kJxhrddwggg6mFWIsSkDSv7Dsk1ab1Xo6TgSArGCH4MJdgV7tf9YN
fjHMRxgreZnf8tuoI0/u3p1/6znItRqPt7ML9PMbcPS2vjsVTF4zggvBN7bCdrDR
t9HFibXMkQFTny39aVPFv34sxQIDAQABo4IBYTCCAV0wDAYDVR0TAQH/BAIwADAd
BgNVHQ4EFgQUgTQNqRbVibdN2h/HAYSewwaoPZQwgYwGA1UdIwSBhDCBgYAUd5tE
XzrArSbv4Z26siX8kA9dWXehXqRcMFoxCzAJBgNVBAYTAkZSMQwwCgYDVQQIEwNJ
REYxDjAMBgNVBAcTBVBhcmlzMRkwFwYDVQQKExBGYWtlIENBIGZvciBUZXN0MRIw
EAYDVQQDEwlOb2RlT1BDVUGCCQC5J8YCW9E0CzA/BgNVHREEODA2hh51cm46bG9j
YWxob3N0Ok5vZGVPUENVQS1DbGllbnSCCWxvY2FsaG9zdIIJbG9jYWxob3N0MCwG
CWCGSAGG+EIBDQQfFh1PcGVuU1NMIEdlbmVyYXRlZCBDZXJ0aWZpY2F0ZTAOBgNV
HQ8BAf8EBAMCAvwwIAYDVR0lAQH/BBYwFAYIKwYBBQUHAwEGCCsGAQUFBwMCMA0G
CSqGSIb3DQEBCwUAA4IBAQAus78PyFbkeCznYIZAPNXvmDPeQoreI7EOFaE7HaMn
a1NS4DKk1NLAn7D6guTeyXcfhYpnytC7XEWcySQyR+CdBq7p5VjDJnZ6IKG7aIKO
lby78BvF/Jq2U8uH8SAf0+yEE0rzoRwRO3TrFlyugOhAEB+nrpuBFyN7wD8a0+rl
M6sGu5zA9nXN+shB+wKEVlN0oF45RDIZ+LChetBlDViwtLj8zXC9qVk4WNSPaEHv
cpx8jKili72PPe27ONNS9EWaisUmvjg6pOKt1cK0q8MszPcJgfr9R8UqTwVqcJ3b
ejbGmDNNxUs4WtRphLIgN3zcSV1bT07S+PG4BPubzAn0
-----END CERTIFICATE-----
Certificate:
    Data:
        Version: 1 (0x0)
        Serial Number:
            b9:27:c6:02:5b:d1:34:0b
        Signature Algorithm: itu-t
        Issuer: C=FR, ST=IDF, L=Paris, O=Fake CA for Test, CN=NodeOPCUA
        Validity
            Not Before: Apr 12 09:10:36 2017 GMT
            Not After : Apr 10 09:10:36 2027 GMT
        Subject: C=FR, ST=IDF, L=Paris, O=Fake CA for Test, CN=NodeOPCUA
        Subject Public Key Info:
            Public Key Algorithm: rsaEncryption
            RSA Public Key: (2048 bit)
                Modulus (2048 bit):
                    00:d3:96:61:2c:1d:19:ec:52:8c:64:59:e0:89:75:
                    68:c1:7f:b4:37:ac:bc:55:29:1b:cc:d3:9e:77:03:
                    7e:66:0f:e0:ad:2e:97:d1:db:a3:cd:c9:cc:58:f6:
                    82:29:e7:3c:c2:5b:2e:57:30:4b:9e:d6:75:f2:01:
                    98:ec:ff:3c:ab:56:9e:8c:94:3f:b0:c5:34:3c:10:
                    a3:94:30:32:f1:a2:1a:7f:9b:20:1a:22:00:c7:62:
                    d4:30:41:b1:92:97:be:31:d3:12:d1:80:56:e5:60:
                    12:18:d2:48:27:73:db:8e:d4:e9:c4:b1:0a:c7:24:
                    31:4f:7a:44:f8:e8:88:30:d6:ab:77:e2:64:ba:a1:
                    83:07:a7:bf:be:a5:a3:c8:3b:af:e5:cb:81:05:9d:
                    cd:ae:98:5b:3d:23:8c:c4:0f:10:0c:55:ff:19:83:
                    45:ab:22:99:00:38:64:2b:62:8a:81:d5:1e:b8:c2:
                    c8:72:22:13:5c:df:75:90:62:c8:a4:8c:26:93:2b:
                    2b:8a:3f:59:b5:4d:8e:f9:81:ce:68:bb:72:34:43:
                    07:e9:33:02:d3:76:f5:a7:93:5c:ab:92:46:d7:73:
                    ce:f8:7e:af:91:37:34:68:2e:95:49:1a:6c:3d:ba:
                    4d:c5:c4:94:0c:9f:10:4b:d0:50:b2:5e:89:72:cd:
                    d2:cf
                Exponent: 65537 (0x10001)
    Signature Algorithm: itu-t
-----BEGIN CERTIFICATE-----
MIIEkjCCA3qgAwIBAgIJALknxgJb0TQLMA0GCSqGSIb3DQEBBQUAMFoxCzAJBgNV
BAYTAkZSMQwwCgYDVQQIEwNJREYxDjAMBgNVBAcTBVBhcmlzMRkwFwYDVQQKExBG
YWtlIENBIGZvciBUZXN0MRIwEAYDVQQDEwlOb2RlT1BDVUEwHhcNMTcwNDEyMDkx
MDM2WhcNMjcwNDEwMDkxMDM2WjBaMQswCQYDVQQGEwJGUjEMMAoGA1UECBMDSURG
MQ4wDAYDVQQHEwVQYXJpczEZMBcGA1UEChMQRmFrZSBDQSBmb3IgVGVzdDESMBAG
A1UEAxMJTm9kZU9QQ1VBMIIBIjANBgkqhkiG9w0BAQEFAAOCAQ8AMIIBCgKCAQEA
05ZhLB0Z7FKMZFngiXVowX+0N6y8VSkbzNOedwN+Zg/grS6X0dujzcnMWPaCKec8
wlsuVzBLntZ18gGY7P88q1aejJQ/sMU0PBCjlDAy8aIaf5sgGiIAx2LUMEGxkpe+
MdMS0YBW5WASGNJIJ3PbjtTpxLEKxyQxT3pE+OiIMNard+JkuqGDB6e/vqWjyDuv
5cuBBZ3NrphbPSOMxA8QDFX/GYNFqyKZADhkK2KKgdUeuMLIciITXN91kGLIpIwm
kysrij9ZtU2O+YHOaLtyNEMH6TMC03b1p5Ncq5JG13PO+H6vkTc0aC6VSRpsPbpN
xcSUDJ8QS9BQsl6Jcs3SzwIDAQABo4IBWTCCAVUwHQYDVR0OBBYEFHebRF86wK0m
7+GdurIl/JAPXVl3MIGMBgNVHSMEgYQwgYGAFHebRF86wK0m7+GdurIl/JAPXVl3
oV6kXDBaMQswCQYDVQQGEwJGUjEMMAoGA1UECBMDSURGMQ4wDAYDVQQHEwVQYXJp
czEZMBcGA1UEChMQRmFrZSBDQSBmb3IgVGVzdDESMBAGA1UEAxMJTm9kZU9QQ1VB
ggkAuSfGAlvRNAswDAYDVR0TBAUwAwEB/zAOBgNVHQ8BAf8EBAMCAQYwVwYJYIZI
AYb4QgENBEoWSENBIENlcnRpZmljYXRlIGdlbmVyYXRlZCBieSBOb2RlLU9QQ1VB
IENlcnRpZmljYXRlIHV0aWxpdHkgdXNpbmcgb3BlbnNzbDAuBgNVHR8EJzAlMCOg
IaAfhh1odHRwOi8vbG9jYWxob3N0Ojg5MDAvY3JsLnBlbTANBgkqhkiG9w0BAQUF
AAOCAQEAkvC4SR68ak9AD3ELw3fo+hDSnX8dl1Qns8ngKDHj/Nf0UfTLhjZpJsoU
WBeqIcge0+7YN4QWyYAnBgSZQDSWU7gIUY+GoH8TXKR8DCGRPX0FAFnHrTwpw8PW
myHB9MmVizdUJ6s262yb3CWMUsrysFJmEOPNOGsWrbAiYqRiidK/v6Tg71qc9aji
EcE2EMBNgGe66UnClI1eLOtEvbvjOMh2RUYtfpUUpGlBfKzs64PSmihFQQGBO6M3
A4v+2oFjU4GujQsFeVSHAVaoenwYj2LPYCChk156zIM/CvfSgl39QDlr/42ebAHg
p2jUGFzaF9SqiBvl4f0KjHeAzeDUfQ==
-----END CERTIFICATE-----
