Certificate Request:
    Data:
        Version: 0 (0x0)
        Subject: C=FR, O=NodeOPCUA, CN=NodeOPCUA
        Subject Public Key Info:
            Public Key Algorithm: rsaEncryption
            RSA Public Key: (1024 bit)
                Modulus (1024 bit):
                    00:9e:f3:01:90:c6:b5:bb:5b:9b:dc:98:35:d8:53:
                    73:b6:b9:80:6a:fa:b9:3d:79:66:ae:7d:fa:92:c7:
                    98:ff:2b:0b:6e:3c:54:05:83:b6:ee:98:5e:02:0f:
                    14:59:a6:3f:1a:be:7d:c5:ff:ee:30:bc:a7:c1:31:
                    0a:a6:be:6c:ac:4f:ab:7f:8e:d9:76:b7:79:0d:20:
                    7f:61:06:e6:b1:1b:4f:5c:39:87:85:77:e7:13:06:
                    e1:3c:27:23:8a:77:90:3c:7f:37:96:b6:c3:d6:cc:
                    f4:d6:fc:0f:71:dc:60:da:63:9a:1d:a0:99:0c:63:
                    b9:4a:0d:d9:93:ef:8c:b6:2f
                Exponent: 65537 (0x10001)
        Attributes:
        Requested Extensions:
            X509v3 Basic Constraints: 
                CA:FALSE
            X509v3 Key Usage: critical
                Certificate Sign, CRL Sign
            X509v3 Subject Alternative Name: 
                URI:undefined
    Signature Algorithm: sha256WithRSAEncryption
        13:46:00:20:c5:9b:3e:3a:c8:ff:ca:84:27:8d:28:a6:16:0a:
        a3:e4:43:8f:14:e6:38:a7:b8:88:30:7d:ea:b9:dc:04:52:1f:
        27:36:c7:2e:06:70:b7:d5:6e:f2:d3:e8:2f:cc:fd:8d:83:19:
        18:c0:ba:ba:f5:83:fb:c5:c5:07:dd:3c:3d:d1:d8:82:7a:c4:
        7d:62:3a:e8:a2:9a:e1:2c:af:78:35:73:ec:25:72:32:cb:17:
        74:a1:66:28:bb:44:cc:99:72:8c:c5:90:11:3d:75:cd:c8:c1:
        0d:1c:05:4c:8b:b3:9f:c9:e0:77:2a:14:fb:a1:df:12:29:7c:
        76:92
-----BEGIN CERTIFICATE REQUEST-----
MIIBtzCCASACAQAwNTELMAkGA1UEBhMCRlIxEjAQBgNVBAoMCU5vZGVPUENVQTES
MBAGA1UEAwwJTm9kZU9QQ1VBMIGfMA0GCSqGSIb3DQEBAQUAA4GNADCBiQKBgQCe
8wGQxrW7W5vcmDXYU3O2uYBq+rk9eWauffqSx5j/KwtuPFQFg7bumF4CDxRZpj8a
vn3F/+4wvKfBMQqmvmysT6t/jtl2t3kNIH9hBuaxG09cOYeFd+cTBuE8JyOKd5A8
fzeWtsPWzPTW/A9x3GDaY5odoJkMY7lKDdmT74y2LwIDAQABoEIwQAYJKoZIhvcN
AQkOMTMwMTAJBgNVHRMEAjAAMA4GA1UdDwEB/wQEAwIBBjAUBgNVHREEDTALhgl1
bmRlZmluZWQwDQYJKoZIhvcNAQELBQADgYEAE0YAIMWbPjrI/8qEJ40ophYKo+RD
jxTmOKe4iDB96rncBFIfJzbHLgZwt9Vu8tPoL8z9jYMZGMC6uvWD+8XFB908PdHY
gnrEfWI66KKa4SyveDVz7CVyMssXdKFmKLtEzJlyjMWQET11zcjBDRwFTIuzn8ng
dyoU+6HfEil8dpI=
-----END CERTIFICATE REQUEST-----
