Certificate:
    Data:
        Version: 3 (0x2)
        Serial Number: 4097 (0x1001)
        Signature Algorithm: sha256WithRSAEncryption
        Issuer: C=FR, ST=IDF, L=Paris, O=Fake CA for Test, CN=NodeOPCUA
        Validity
            Not Before: Apr 11 09:10:35 2017 GMT
            Not After : Apr 11 09:10:35 2018 GMT
        Subject: O=NodeOPCUA, CN=NodeOPCUA
        Subject Public Key Info:
            Public Key Algorithm: rsaEncryption
            RSA Public Key: (2048 bit)
                Modulus (2048 bit):
                    00:ba:c9:f0:cd:62:18:9c:90:c0:a7:10:2f:95:c2:
                    95:25:d7:00:73:e5:af:07:44:de:3d:c3:83:11:0d:
                    a8:0f:f2:cc:60:45:28:2e:69:8b:3c:b3:15:6e:80:
                    c3:c4:ee:93:c9:14:75:6f:af:49:d4:6d:cc:3e:ee:
                    03:31:a7:ee:5a:68:78:26:81:9f:af:a6:1b:2f:e7:
                    2b:25:b4:17:31:7e:fc:7b:30:c5:3e:03:aa:6e:f2:
                    66:f3:60:ba:b4:9f:80:18:da:72:c5:f0:e4:93:15:
                    f1:ac:f6:de:f4:95:bc:f6:eb:63:fb:1b:03:4a:cf:
                    17:5c:44:e1:2e:04:26:82:66:49:42:34:d5:a0:65:
                    23:0d:81:91:ad:82:c5:4e:9e:b4:b4:31:c7:2d:6d:
                    c7:69:1a:23:9c:87:72:8d:8e:19:1b:0a:49:d2:6f:
                    1c:4c:53:6d:55:cf:f8:91:cd:d8:f7:c6:01:52:19:
                    45:dd:a1:e2:97:52:31:7b:5c:e6:77:3d:a1:76:6c:
                    11:4a:24:04:b6:5d:28:04:7e:0e:16:3e:af:49:6f:
                    bb:fe:d3:3c:94:2a:9e:3d:80:a7:8f:c8:34:0f:25:
                    15:28:ad:85:0b:a7:a0:ff:52:b0:4e:09:da:e3:4b:
                    60:06:f4:27:25:a6:62:3b:c9:98:4d:5b:ca:75:31:
                    d9:59
                Exponent: 65537 (0x10001)
        X509v3 extensions:
            X509v3 Basic Constraints: critical
                CA:FALSE
            X509v3 Subject Key Identifier: 
                7F:47:B9:D0:C5:F0:74:4A:0A:6D:DF:D9:04:C9:F2:FF:6E:C3:4C:98
            X509v3 Authority Key Identifier: 
                keyid:77:9B:44:5F:3A:C0:AD:26:EF:E1:9D:BA:B2:25:FC:90:0F:5D:59:77
                DirName:/C=FR/ST=IDF/L=Paris/O=Fake CA for Test/CN=NodeOPCUA
                serial:B9:27:C6:02:5B:D1:34:0B

            X509v3 Subject Alternative Name: 
                URI:urn:localhost:NodeOPCUA-Client, DNS:localhost, DNS:localhost
            Netscape Comment: 
                OpenSSL Generated Certificate
            X509v3 Key Usage: critical
                Digital Signature, Non Repudiation, Key Encipherment, Data Encipherment, Key Agreement, Certificate Sign
            X509v3 Extended Key Usage: critical
                TLS Web Server Authentication, TLS Web Client Authentication
    Signature Algorithm: sha256WithRSAEncryption
        47:92:bb:bc:bc:84:35:a8:04:63:76:dc:be:9f:ab:66:db:df:
        dd:4b:e7:5d:13:73:eb:92:7d:6e:49:db:43:55:71:a7:30:b4:
        16:64:a8:cb:76:d7:4c:06:dc:ce:20:4d:db:db:65:70:6c:ad:
        6d:74:58:ea:29:78:89:9e:d2:23:6b:0f:ff:b2:37:3a:4c:90:
        f6:47:1e:42:82:d6:1c:c2:b0:01:c7:87:43:dc:a6:81:71:d3:
        43:8d:db:00:16:ce:0f:6c:48:29:57:bb:d3:a2:5a:b8:e2:03:
        1a:73:38:8e:4f:6c:eb:03:3c:4b:9d:f5:8b:5b:cc:0c:fb:48:
        0c:82:33:90:af:a3:ca:1e:82:75:7d:66:89:fb:f8:11:2c:de:
        29:5f:d6:bb:39:5f:8a:29:ff:0b:08:a6:99:2b:b7:f1:6d:94:
        3b:7e:97:ec:ba:e3:9d:23:06:de:2e:70:a9:49:dd:7a:d6:8f:
        14:d0:a8:a5:09:ef:c2:87:2d:99:f5:2e:ee:0a:02:aa:27:37:
        41:31:e9:7a:fd:d4:a5:b8:12:95:5d:47:0d:16:7a:e6:3d:03:
        d9:e3:e2:10:a9:f6:99:29:ef:80:d9:b4:7e:68:e6:b1:bf:bb:
        d1:d0:a2:e3:48:2e:97:ad:a0:e2:8d:e2:4a:16:38:93:78:cc:
        15:6c:34:ae
-----BEGIN CERTIFICATE-----
MIIEYTCCA0mgAwIBAgICEAEwDQYJKoZIhvcNAQELBQAwWjELMAkGA1UEBhMCRlIx
DDAKBgNVBAgTA0lERjEOMAwGA1UEBxMFUGFyaXMxGTAXBgNVBAoTEEZha2UgQ0Eg
Zm9yIFRlc3QxEjAQBgNVBAMTCU5vZGVPUENVQTAeFw0xNzA0MTEwOTEwMzVaFw0x
ODA0MTEwOTEwMzVaMCgxEjAQBgNVBAoTCU5vZGVPUENVQTESMBAGA1UEAxMJTm9k
ZU9QQ1VBMIIBIjANBgkqhkiG9w0BAQEFAAOCAQ8AMIIBCgKCAQEAusnwzWIYnJDA
pxAvlcKVJdcAc+WvB0TePcODEQ2oD/LMYEUoLmmLPLMVboDDxO6TyRR1b69J1G3M
Pu4DMafuWmh4JoGfr6YbL+crJbQXMX78ezDFPgOqbvJm82C6tJ+AGNpyxfDkkxXx
rPbe9JW89utj+xsDSs8XXEThLgQmgmZJQjTVoGUjDYGRrYLFTp60tDHHLW3HaRoj
nIdyjY4ZGwpJ0m8cTFNtVc/4kc3Y98YBUhlF3aHil1Ixe1zmdz2hdmwRSiQEtl0o
BH4OFj6vSW+7/tM8lCqePYCnj8g0DyUVKK2FC6eg/1KwTgna40tgBvQnJaZiO8mY
TVvKdTHZWQIDAQABo4IBYTCCAV0wDAYDVR0TAQH/BAIwADAdBgNVHQ4EFgQUf0e5
0MXwdEoKbd/ZBMny/27DTJgwgYwGA1UdIwSBhDCBgYAUd5tEXzrArSbv4Z26siX8
kA9dWXehXqRcMFoxCzAJBgNVBAYTAkZSMQwwCgYDVQQIEwNJREYxDjAMBgNVBAcT
BVBhcmlzMRkwFwYDVQQKExBGYWtlIENBIGZvciBUZXN0MRIwEAYDVQQDEwlOb2Rl
T1BDVUGCCQC5J8YCW9E0CzA/BgNVHREEODA2hh51cm46bG9jYWxob3N0Ok5vZGVP
UENVQS1DbGllbnSCCWxvY2FsaG9zdIIJbG9jYWxob3N0MCwGCWCGSAGG+EIBDQQf
Fh1PcGVuU1NMIEdlbmVyYXRlZCBDZXJ0aWZpY2F0ZTAOBgNVHQ8BAf8EBAMCAvww
IAYDVR0lAQH/BBYwFAYIKwYBBQUHAwEGCCsGAQUFBwMCMA0GCSqGSIb3DQEBCwUA
A4IBAQBHkru8vIQ1qARjdty+n6tm29/dS+ddE3Prkn1uSdtDVXGnMLQWZKjLdtdM
BtzOIE3b22VwbK1tdFjqKXiJntIjaw//sjc6TJD2Rx5CgtYcwrABx4dD3KaBcdND
jdsAFs4PbEgpV7vTolq44gMacziOT2zrAzxLnfWLW8wM+0gMgjOQr6PKHoJ1fWaJ
+/gRLN4pX9a7OV+KKf8LCKaZK7fxbZQ7fpfsuuOdIwbeLnCpSd161o8U0KilCe/C
hy2Z9S7uCgKqJzdBMel6/dSluBKVXUcNFnrmPQPZ4+IQqfaZKe+A2bR+aOaxv7vR
0KLjSC6XraDijeJKFjiTeMwVbDSu
-----END CERTIFICATE-----
Certificate:
    Data:
        Version: 1 (0x0)
        Serial Number:
            b9:27:c6:02:5b:d1:34:0b
        Signature Algorithm: itu-t
        Issuer: C=FR, ST=IDF, L=Paris, O=Fake CA for Test, CN=NodeOPCUA
        Validity
            Not Before: Apr 12 09:10:36 2017 GMT
            Not After : Apr 10 09:10:36 2027 GMT
        Subject: C=FR, ST=IDF, L=Paris, O=Fake CA for Test, CN=NodeOPCUA
        Subject Public Key Info:
            Public Key Algorithm: rsaEncryption
            RSA Public Key: (2048 bit)
                Modulus (2048 bit):
                    00:d3:96:61:2c:1d:19:ec:52:8c:64:59:e0:89:75:
                    68:c1:7f:b4:37:ac:bc:55:29:1b:cc:d3:9e:77:03:
                    7e:66:0f:e0:ad:2e:97:d1:db:a3:cd:c9:cc:58:f6:
                    82:29:e7:3c:c2:5b:2e:57:30:4b:9e:d6:75:f2:01:
                    98:ec:ff:3c:ab:56:9e:8c:94:3f:b0:c5:34:3c:10:
                    a3:94:30:32:f1:a2:1a:7f:9b:20:1a:22:00:c7:62:
                    d4:30:41:b1:92:97:be:31:d3:12:d1:80:56:e5:60:
                    12:18:d2:48:27:73:db:8e:d4:e9:c4:b1:0a:c7:24:
                    31:4f:7a:44:f8:e8:88:30:d6:ab:77:e2:64:ba:a1:
                    83:07:a7:bf:be:a5:a3:c8:3b:af:e5:cb:81:05:9d:
                    cd:ae:98:5b:3d:23:8c:c4:0f:10:0c:55:ff:19:83:
                    45:ab:22:99:00:38:64:2b:62:8a:81:d5:1e:b8:c2:
                    c8:72:22:13:5c:df:75:90:62:c8:a4:8c:26:93:2b:
                    2b:8a:3f:59:b5:4d:8e:f9:81:ce:68:bb:72:34:43:
                    07:e9:33:02:d3:76:f5:a7:93:5c:ab:92:46:d7:73:
                    ce:f8:7e:af:91:37:34:68:2e:95:49:1a:6c:3d:ba:
                    4d:c5:c4:94:0c:9f:10:4b:d0:50:b2:5e:89:72:cd:
                    d2:cf
                Exponent: 65537 (0x10001)
    Signature Algorithm: itu-t
-----BEGIN CERTIFICATE-----
MIIEkjCCA3qgAwIBAgIJALknxgJb0TQLMA0GCSqGSIb3DQEBBQUAMFoxCzAJBgNV
BAYTAkZSMQwwCgYDVQQIEwNJREYxDjAMBgNVBAcTBVBhcmlzMRkwFwYDVQQKExBG
YWtlIENBIGZvciBUZXN0MRIwEAYDVQQDEwlOb2RlT1BDVUEwHhcNMTcwNDEyMDkx
MDM2WhcNMjcwNDEwMDkxMDM2WjBaMQswCQYDVQQGEwJGUjEMMAoGA1UECBMDSURG
MQ4wDAYDVQQHEwVQYXJpczEZMBcGA1UEChMQRmFrZSBDQSBmb3IgVGVzdDESMBAG
A1UEAxMJTm9kZU9QQ1VBMIIBIjANBgkqhkiG9w0BAQEFAAOCAQ8AMIIBCgKCAQEA
05ZhLB0Z7FKMZFngiXVowX+0N6y8VSkbzNOedwN+Zg/grS6X0dujzcnMWPaCKec8
wlsuVzBLntZ18gGY7P88q1aejJQ/sMU0PBCjlDAy8aIaf5sgGiIAx2LUMEGxkpe+
MdMS0YBW5WASGNJIJ3PbjtTpxLEKxyQxT3pE+OiIMNard+JkuqGDB6e/vqWjyDuv
5cuBBZ3NrphbPSOMxA8QDFX/GYNFqyKZADhkK2KKgdUeuMLIciITXN91kGLIpIwm
kysrij9ZtU2O+YHOaLtyNEMH6TMC03b1p5Ncq5JG13PO+H6vkTc0aC6VSRpsPbpN
xcSUDJ8QS9BQsl6Jcs3SzwIDAQABo4IBWTCCAVUwHQYDVR0OBBYEFHebRF86wK0m
7+GdurIl/JAPXVl3MIGMBgNVHSMEgYQwgYGAFHebRF86wK0m7+GdurIl/JAPXVl3
oV6kXDBaMQswCQYDVQQGEwJGUjEMMAoGA1UECBMDSURGMQ4wDAYDVQQHEwVQYXJp
czEZMBcGA1UEChMQRmFrZSBDQSBmb3IgVGVzdDESMBAGA1UEAxMJTm9kZU9QQ1VB
ggkAuSfGAlvRNAswDAYDVR0TBAUwAwEB/zAOBgNVHQ8BAf8EBAMCAQYwVwYJYIZI
AYb4QgENBEoWSENBIENlcnRpZmljYXRlIGdlbmVyYXRlZCBieSBOb2RlLU9QQ1VB
IENlcnRpZmljYXRlIHV0aWxpdHkgdXNpbmcgb3BlbnNzbDAuBgNVHR8EJzAlMCOg
IaAfhh1odHRwOi8vbG9jYWxob3N0Ojg5MDAvY3JsLnBlbTANBgkqhkiG9w0BAQUF
AAOCAQEAkvC4SR68ak9AD3ELw3fo+hDSnX8dl1Qns8ngKDHj/Nf0UfTLhjZpJsoU
WBeqIcge0+7YN4QWyYAnBgSZQDSWU7gIUY+GoH8TXKR8DCGRPX0FAFnHrTwpw8PW
myHB9MmVizdUJ6s262yb3CWMUsrysFJmEOPNOGsWrbAiYqRiidK/v6Tg71qc9aji
EcE2EMBNgGe66UnClI1eLOtEvbvjOMh2RUYtfpUUpGlBfKzs64PSmihFQQGBO6M3
A4v+2oFjU4GujQsFeVSHAVaoenwYj2LPYCChk156zIM/CvfSgl39QDlr/42ebAHg
p2jUGFzaF9SqiBvl4f0KjHeAzeDUfQ==
-----END CERTIFICATE-----
