Certificate Request:
    Data:
        Version: 0 (0x0)
        Subject: C=FR, O=NodeOPCUA, CN=NodeOPCUA
        Subject Public Key Info:
            Public Key Algorithm: rsaEncryption
            RSA Public Key: (2048 bit)
                Modulus (2048 bit):
                    00:d2:df:12:cf:bd:44:b1:4b:22:c9:34:b9:0c:ad:
                    8a:db:98:46:61:16:1d:fd:7b:4e:b8:34:67:f1:fe:
                    73:b0:5c:45:be:19:c6:69:13:8e:35:99:51:2a:00:
                    11:60:64:6d:e7:32:fe:d2:be:67:79:35:6b:9d:21:
                    ad:08:41:92:56:83:55:63:fe:fd:af:73:0b:3e:76:
                    1d:d3:01:5c:fd:2f:11:34:4b:fb:1c:46:38:4a:be:
                    eb:92:62:b9:97:f2:de:c9:75:66:55:52:3e:8a:56:
                    f3:a5:16:c6:c3:84:48:28:3a:80:8b:c9:ee:b3:70:
                    c4:14:c8:b4:ea:6a:05:0b:de:58:3e:f7:bc:d6:8f:
                    8f:e7:f5:63:3a:c1:53:8b:bf:6d:09:8a:71:ef:b7:
                    a0:80:63:f2:d4:93:02:e1:53:03:1c:08:9e:1e:bf:
                    b4:02:de:69:85:d3:42:a4:24:93:69:7e:1c:4e:3c:
                    4f:53:5a:3e:90:4e:4c:d5:d1:26:02:8e:3c:75:5b:
                    09:28:36:00:27:6d:30:fc:05:d3:d7:f8:17:89:24:
                    a5:65:db:b4:26:ae:9a:6e:e9:0e:ff:4b:17:ea:cb:
                    16:d7:e9:8c:35:0f:b7:ee:52:5e:21:63:aa:33:fa:
                    18:24:bc:a1:5e:4a:a7:79:92:30:93:bd:f9:58:a4:
                    1e:fd
                Exponent: 65537 (0x10001)
        Attributes:
        Requested Extensions:
            X509v3 Basic Constraints: 
                CA:FALSE
            X509v3 Key Usage: critical
                Certificate Sign, CRL Sign
            X509v3 Subject Alternative Name: 
                URI:undefined
    Signature Algorithm: sha256WithRSAEncryption
        83:09:52:e2:c0:62:e7:86:85:78:a0:9f:7b:2f:82:32:3e:f9:
        92:fd:ee:29:92:cf:2a:8f:04:e2:1e:49:5a:3d:bd:24:fb:34:
        7b:78:0f:11:3a:1a:d2:61:e1:2c:58:82:44:3a:cf:57:35:4c:
        51:65:d5:8c:c8:f3:4c:67:c9:2f:88:c2:e6:8b:10:5b:85:da:
        aa:ed:9e:fd:7d:17:a0:da:4c:09:c4:a3:c2:86:04:b7:94:df:
        8b:5a:95:e7:bd:a8:cc:a0:1d:67:ad:62:86:f5:19:6e:82:e0:
        e0:67:b3:47:ca:91:60:a8:4f:de:bd:00:a8:f9:99:0c:bc:60:
        9f:27:1a:70:d3:13:48:ad:9c:35:83:30:03:40:d0:f6:a4:88:
        a9:90:83:0f:11:86:85:80:cc:b3:10:6f:c0:20:b0:a1:68:aa:
        2d:94:19:73:81:a2:4c:d4:74:66:02:5c:be:39:1f:64:19:03:
        bd:5d:b0:49:af:15:8a:fc:7d:ad:f7:02:2e:2b:72:da:e4:2b:
        33:e9:ff:2b:2a:cf:ba:0e:23:25:3e:9b:32:1a:7d:07:ee:39:
        27:64:ab:85:1d:62:f1:a0:03:80:98:dc:b0:25:4b:b2:f5:c0:
        37:a5:9b:b1:1f:89:1d:16:1d:62:39:d7:44:13:1b:b0:7c:2f:
        8d:8e:ea:71
-----BEGIN CERTIFICATE REQUEST-----
MIICvDCCAaQCAQAwNTELMAkGA1UEBhMCRlIxEjAQBgNVBAoMCU5vZGVPUENVQTES
MBAGA1UEAwwJTm9kZU9QQ1VBMIIBIjANBgkqhkiG9w0BAQEFAAOCAQ8AMIIBCgKC
AQEA0t8Sz71EsUsiyTS5DK2K25hGYRYd/XtOuDRn8f5zsFxFvhnGaROONZlRKgAR
YGRt5zL+0r5neTVrnSGtCEGSVoNVY/79r3MLPnYd0wFc/S8RNEv7HEY4Sr7rkmK5
l/LeyXVmVVI+ilbzpRbGw4RIKDqAi8nus3DEFMi06moFC95YPve81o+P5/VjOsFT
i79tCYpx77eggGPy1JMC4VMDHAieHr+0At5phdNCpCSTaX4cTjxPU1o+kE5M1dEm
Ao48dVsJKDYAJ20w/AXT1/gXiSSlZdu0Jq6abukO/0sX6ssW1+mMNQ+37lJeIWOq
M/oYJLyhXkqneZIwk735WKQe/QIDAQABoEIwQAYJKoZIhvcNAQkOMTMwMTAJBgNV
HRMEAjAAMA4GA1UdDwEB/wQEAwIBBjAUBgNVHREEDTALhgl1bmRlZmluZWQwDQYJ
KoZIhvcNAQELBQADggEBAIMJUuLAYueGhXign3svgjI++ZL97imSzyqPBOIeSVo9
vST7NHt4DxE6GtJh4SxYgkQ6z1c1TFFl1YzI80xnyS+IwuaLEFuF2qrtnv19F6Da
TAnEo8KGBLeU34talee9qMygHWetYob1GW6C4OBns0fKkWCoT969AKj5mQy8YJ8n
GnDTE0itnDWDMANA0PakiKmQgw8RhoWAzLMQb8AgsKFoqi2UGXOBokzUdGYCXL45
H2QZA71dsEmvFYr8fa33Ai4rctrkKzPp/ysqz7oOIyU+mzIafQfuOSdkq4UdYvGg
A4CY3LAlS7L1wDelm7EfiR0WHWI510QTG7B8L42O6nE=
-----END CERTIFICATE REQUEST-----
