Certificate:
    Data:
        Version: 3 (0x2)
        Serial Number: 4096 (0x1000)
        Signature Algorithm: sha256WithRSAEncryption
        Issuer: C=FR, ST=IDF, L=Paris, O=Local NODE-OPCUA Certificate Authority, CN=NodeOPCUA-CA
        Validity
            Not Before: May  1 13:27:44 2017 GMT
            Not After : May  1 13:27:44 2018 GMT
        Subject: C=FR, O=NodeOPCUA, CN=NodeOPCUA
        Subject Public Key Info:
            Public Key Algorithm: rsaEncryption
            RSA Public Key: (1024 bit)
                Modulus (1024 bit):
                    00:9e:f3:01:90:c6:b5:bb:5b:9b:dc:98:35:d8:53:
                    73:b6:b9:80:6a:fa:b9:3d:79:66:ae:7d:fa:92:c7:
                    98:ff:2b:0b:6e:3c:54:05:83:b6:ee:98:5e:02:0f:
                    14:59:a6:3f:1a:be:7d:c5:ff:ee:30:bc:a7:c1:31:
                    0a:a6:be:6c:ac:4f:ab:7f:8e:d9:76:b7:79:0d:20:
                    7f:61:06:e6:b1:1b:4f:5c:39:87:85:77:e7:13:06:
                    e1:3c:27:23:8a:77:90:3c:7f:37:96:b6:c3:d6:cc:
                    f4:d6:fc:0f:71:dc:60:da:63:9a:1d:a0:99:0c:63:
                    b9:4a:0d:d9:93:ef:8c:b6:2f
                Exponent: 65537 (0x10001)
        X509v3 extensions:
            X509v3 Basic Constraints: critical
                CA:FALSE
            X509v3 Subject Key Identifier: 
                13:12:8A:59:0C:B4:3E:48:F4:E5:B9:53:FB:DB:03:D2:BC:62:88:AA
            X509v3 Authority Key Identifier: 
                keyid:8A:FF:87:2D:B2:76:79:F7:6F:3C:79:77:5B:49:6C:9C:49:03:E6:A4
                DirName:/C=FR/ST=IDF/L=Paris/O=Local NODE-OPCUA Certificate Authority/CN=NodeOPCUA-CA
                serial:D6:7C:D6:E6:02:18:3C:DA

            X509v3 Subject Alternative Name: 
                URI:urn:localhost:NodeOPCUA-Client, DNS:localhost, DNS:localhost
            Netscape Comment: 
                OpenSSL Generated Certificate
            X509v3 Key Usage: critical
                Digital Signature, Non Repudiation, Key Encipherment, Data Encipherment, Key Agreement, Certificate Sign
            X509v3 Extended Key Usage: critical
                TLS Web Server Authentication, TLS Web Client Authentication
    Signature Algorithm: sha256WithRSAEncryption
        bc:02:02:b6:2a:b1:3f:6e:1b:fc:65:1b:3f:1a:f6:cd:7c:31:
        e9:0b:6d:e9:2f:f5:5f:f8:f4:ea:04:7f:2c:ce:84:4f:32:3f:
        cc:4c:cc:b3:ad:38:db:07:f0:a6:fa:b2:fb:17:a8:a7:ac:2a:
        34:25:7b:85:7e:c7:14:f9:ed:fe:48:f0:cc:9c:e1:20:87:22:
        4d:b9:e0:67:8b:54:fb:17:df:26:3e:48:a4:ce:a5:46:3a:4c:
        89:c4:8e:a6:6d:ac:9f:8d:52:f8:5c:e1:61:9a:c3:c3:c3:77:
        28:c2:62:1b:6f:9e:dc:bf:75:21:e9:45:b5:f4:4d:57:98:6c:
        7c:80:5f:ee:e9:cf:9a:1e:f5:8b:23:b3:2c:e0:fc:bd:a2:12:
        ed:3d:55:88:97:d2:b0:fa:f2:39:5a:b9:fe:6a:ab:fd:da:b9:
        47:b9:ef:62:9c:d1:98:09:0a:88:cc:ec:e3:2b:4e:f1:b4:a1:
        48:1b:da:55:ff:57:21:9b:19:8a:b1:ea:01:fc:5c:76:22:c7:
        d8:f0:a9:5b:7d:08:b7:8a:7a:21:e3:c7:ed:de:dd:0d:01:04:
        61:82:14:2c:30:46:bb:67:ae:68:5c:b1:43:97:19:06:4e:b7:
        f5:db:fd:7d:67:f1:02:ba:16:0a:ce:ed:04:f6:a2:81:e3:bc:
        59:65:a1:33
-----BEGIN CERTIFICATE-----
MIIEHDCCAwSgAwIBAgICEAAwDQYJKoZIhvcNAQELBQAwczELMAkGA1UEBhMCRlIx
DDAKBgNVBAgTA0lERjEOMAwGA1UEBxMFUGFyaXMxLzAtBgNVBAoTJkxvY2FsIE5P
REUtT1BDVUEgQ2VydGlmaWNhdGUgQXV0aG9yaXR5MRUwEwYDVQQDEwxOb2RlT1BD
VUEtQ0EwHhcNMTcwNTAxMTMyNzQ0WhcNMTgwNTAxMTMyNzQ0WjA1MQswCQYDVQQG
EwJGUjESMBAGA1UECgwJTm9kZU9QQ1VBMRIwEAYDVQQDDAlOb2RlT1BDVUEwgZ8w
DQYJKoZIhvcNAQEBBQADgY0AMIGJAoGBAJ7zAZDGtbtbm9yYNdhTc7a5gGr6uT15
Zq59+pLHmP8rC248VAWDtu6YXgIPFFmmPxq+fcX/7jC8p8ExCqa+bKxPq3+O2Xa3
eQ0gf2EG5rEbT1w5h4V35xMG4TwnI4p3kDx/N5a2w9bM9Nb8D3HcYNpjmh2gmQxj
uUoN2ZPvjLYvAgMBAAGjggF6MIIBdjAMBgNVHRMBAf8EAjAAMB0GA1UdDgQWBBQT
EopZDLQ+SPTluVP72wPSvGKIqjCBpQYDVR0jBIGdMIGagBSK/4ctsnZ59288eXdb
SWycSQPmpKF3pHUwczELMAkGA1UEBhMCRlIxDDAKBgNVBAgTA0lERjEOMAwGA1UE
BxMFUGFyaXMxLzAtBgNVBAoTJkxvY2FsIE5PREUtT1BDVUEgQ2VydGlmaWNhdGUg
QXV0aG9yaXR5MRUwEwYDVQQDEwxOb2RlT1BDVUEtQ0GCCQDWfNbmAhg82jA/BgNV
HREEODA2hh51cm46bG9jYWxob3N0Ok5vZGVPUENVQS1DbGllbnSCCWxvY2FsaG9z
dIIJbG9jYWxob3N0MCwGCWCGSAGG+EIBDQQfFh1PcGVuU1NMIEdlbmVyYXRlZCBD
ZXJ0aWZpY2F0ZTAOBgNVHQ8BAf8EBAMCAvwwIAYDVR0lAQH/BBYwFAYIKwYBBQUH
AwEGCCsGAQUFBwMCMA0GCSqGSIb3DQEBCwUAA4IBAQC8AgK2KrE/bhv8ZRs/GvbN
fDHpC23pL/Vf+PTqBH8szoRPMj/MTMyzrTjbB/Cm+rL7F6inrCo0JXuFfscU+e3+
SPDMnOEghyJNueBni1T7F98mPkikzqVGOkyJxI6mbayfjVL4XOFhmsPDw3cowmIb
b57cv3Uh6UW19E1XmGx8gF/u6c+aHvWLI7Ms4Py9ohLtPVWIl9Kw+vI5Wrn+aqv9
2rlHue9inNGYCQqIzOzjK07xtKFIG9pV/1chmxmKseoB/Fx2IsfY8KlbfQi3inoh
48ft3t0NAQRhghQsMEa7Z65oXLFDlxkGTrf12/19Z/ECuhYKzu0E9qKB47xZZaEz
-----END CERTIFICATE-----
Certificate:
    Data:
        Version: 1 (0x0)
        Serial Number:
            d6:7c:d6:e6:02:18:3c:da
        Signature Algorithm: itu-t
        Issuer: C=FR, ST=IDF, L=Paris, O=Local NODE-OPCUA Certificate Authority, CN=NodeOPCUA-CA
        Validity
            Not Before: May  2 13:27:45 2017 GMT
            Not After : Apr 30 13:27:45 2027 GMT
        Subject: C=FR, ST=IDF, L=Paris, O=Local NODE-OPCUA Certificate Authority, CN=NodeOPCUA-CA
        Subject Public Key Info:
            Public Key Algorithm: rsaEncryption
            RSA Public Key: (2048 bit)
                Modulus (2048 bit):
                    00:cf:64:b2:28:0f:3c:d7:88:38:91:a3:76:2f:ba:
                    7b:98:76:46:4b:c3:a0:8d:72:fa:7b:f1:33:fd:2b:
                    9f:bc:ae:2d:61:ae:6a:3c:24:03:3b:bd:22:52:70:
                    2c:e8:a3:59:fc:6e:ed:8f:f1:db:b3:7b:c0:fe:8e:
                    18:56:db:55:ee:b5:ce:e1:ff:7d:1b:3f:ca:b3:9a:
                    b6:45:2c:2d:06:44:04:d2:92:0a:c9:f7:3a:79:72:
                    50:3d:ca:2e:9c:d1:6d:74:2a:54:e0:db:1f:c1:d9:
                    ed:ca:55:bb:c9:3c:5d:2e:bb:2f:c3:1c:94:6e:b4:
                    bf:85:d2:f8:77:ed:01:63:62:e4:d5:88:44:62:51:
                    9d:7b:7f:bc:25:cc:7d:42:3f:e8:d4:8b:b8:ad:4e:
                    60:47:47:d1:61:f6:cb:56:b9:b1:5b:8d:26:1b:c4:
                    cd:fb:20:bb:af:3f:6e:ca:3d:65:23:99:dd:1e:0c:
                    73:43:92:dc:4c:61:4b:fa:c6:25:db:47:54:e8:6b:
                    5b:72:e9:74:5c:dd:a4:47:00:98:49:37:59:6f:07:
                    2b:56:a9:a2:9b:23:70:16:7a:87:dc:cc:ac:6b:f8:
                    11:49:b3:52:c3:11:4f:2a:ea:ef:ff:35:42:28:e5:
                    2c:2a:f0:2e:70:1b:73:64:b1:12:f8:d9:65:0b:06:
                    c9:b9
                Exponent: 65537 (0x10001)
    Signature Algorithm: itu-t
-----BEGIN CERTIFICATE-----
MIIE3TCCA8WgAwIBAgIJANZ81uYCGDzaMA0GCSqGSIb3DQEBCwUAMHMxCzAJBgNV
BAYTAkZSMQwwCgYDVQQIEwNJREYxDjAMBgNVBAcTBVBhcmlzMS8wLQYDVQQKEyZM
b2NhbCBOT0RFLU9QQ1VBIENlcnRpZmljYXRlIEF1dGhvcml0eTEVMBMGA1UEAxMM
Tm9kZU9QQ1VBLUNBMB4XDTE3MDUwMjEzMjc0NVoXDTI3MDQzMDEzMjc0NVowczEL
MAkGA1UEBhMCRlIxDDAKBgNVBAgTA0lERjEOMAwGA1UEBxMFUGFyaXMxLzAtBgNV
BAoTJkxvY2FsIE5PREUtT1BDVUEgQ2VydGlmaWNhdGUgQXV0aG9yaXR5MRUwEwYD
VQQDEwxOb2RlT1BDVUEtQ0EwggEiMA0GCSqGSIb3DQEBAQUAA4IBDwAwggEKAoIB
AQDPZLIoDzzXiDiRo3YvunuYdkZLw6CNcvp78TP9K5+8ri1hrmo8JAM7vSJScCzo
o1n8bu2P8duze8D+jhhW21Xutc7h/30bP8qzmrZFLC0GRATSkgrJ9zp5clA9yi6c
0W10KlTg2x/B2e3KVbvJPF0uuy/DHJRutL+F0vh37QFjYuTViERiUZ17f7wlzH1C
P+jUi7itTmBHR9Fh9stWubFbjSYbxM37ILuvP27KPWUjmd0eDHNDktxMYUv6xiXb
R1Toa1ty6XRc3aRHAJhJN1lvBytWqaKbI3AWeofczKxr+BFJs1LDEU8q6u//NUIo
5Swq8C5wG3NksRL42WULBsm5AgMBAAGjggFyMIIBbjAdBgNVHQ4EFgQUiv+HLbJ2
efdvPHl3W0lsnEkD5qQwgaUGA1UdIwSBnTCBmoAUiv+HLbJ2efdvPHl3W0lsnEkD
5qShd6R1MHMxCzAJBgNVBAYTAkZSMQwwCgYDVQQIEwNJREYxDjAMBgNVBAcTBVBh
cmlzMS8wLQYDVQQKEyZMb2NhbCBOT0RFLU9QQ1VBIENlcnRpZmljYXRlIEF1dGhv
cml0eTEVMBMGA1UEAxMMTm9kZU9QQ1VBLUNBggkA1nzW5gIYPNowDAYDVR0TBAUw
AwEB/zAOBgNVHQ8BAf8EBAMCAQYwVwYJYIZIAYb4QgENBEoWSENBIENlcnRpZmlj
YXRlIGdlbmVyYXRlZCBieSBOb2RlLU9QQ1VBIENlcnRpZmljYXRlIHV0aWxpdHkg
dXNpbmcgb3BlbnNzbDAuBgNVHR8EJzAlMCOgIaAfhh1odHRwOi8vbG9jYWxob3N0
Ojg5MDAvY3JsLnBlbTANBgkqhkiG9w0BAQsFAAOCAQEAhOV1H8KMzSfzS/usRVsU
/i1/kuqLapXBccAA67fGa2TsuOMXglXy2gT0mg4bInnYnFI/NIEiri/sRTAe+WK1
36BY09gqGJKX8vJpRkIJ6OLxm6DI30+LK7wOdxyaqlSFUfKUzCbubTclpE0m/Lsi
K/TG/X3Tvlc56WKiwmY5uMHLqyLZRDn9Z+Q9wr+trsnRv9DuzDjQec3EXsAhQWZj
dl2xmPjNddnsSAxcKzO4JleebQylZUR3fJGkSRPE9/ODiUJ++Smy8nU5+fIVh4yw
lpvDmBnoInasqWogjL6E2sv/4EBMakTjiBuYC/NA+vKlr+PBO5RMZWppOJwYcfDn
aQ==
-----END CERTIFICATE-----
