Certificate Request:
    Data:
        Version: 0 (0x0)
        Subject: C=FR, O=NodeOPCUA, CN=NodeOPCUA
        Subject Public Key Info:
            Public Key Algorithm: rsaEncryption
            RSA Public Key: (2048 bit)
                Modulus (2048 bit):
                    00:ab:f2:4f:c1:4f:78:7d:6c:10:b1:9f:78:00:ec:
                    08:4d:69:d0:5d:af:73:45:a0:c8:95:f8:85:4b:e6:
                    15:65:d2:38:84:d6:f3:62:82:1e:0e:96:21:55:ba:
                    ea:63:b6:8e:1a:56:d9:e3:2e:c3:e4:12:da:1c:ce:
                    dc:27:17:b6:4e:57:09:9a:a9:2a:f6:b8:c8:52:bd:
                    57:2e:86:e4:d9:c7:dd:a1:57:2b:48:a7:c0:dc:94:
                    49:d5:01:48:35:21:9d:79:5c:d4:89:91:cd:4c:5d:
                    24:0e:6f:c9:21:05:82:b7:58:2e:f2:8f:fb:96:2d:
                    ba:de:73:5a:25:8a:bb:e0:c5:99:6b:90:99:fb:3a:
                    48:ab:3f:2f:c2:4a:1a:1a:9a:6c:ef:ae:61:16:c1:
                    ad:48:d0:42:a7:04:4c:23:1d:2a:5e:75:da:66:6f:
                    96:19:e1:a0:e5:ee:e1:b4:03:33:c4:bd:be:8d:91:
                    ce:3d:a9:c7:4d:ef:16:07:be:d4:8d:24:77:00:ed:
                    af:9c:ad:04:59:dd:10:6c:c8:6d:1f:10:2f:11:13:
                    c3:11:75:71:e8:bd:f7:ac:3d:ad:6b:c2:e7:0a:d5:
                    10:2a:75:da:a1:0c:0a:ff:0a:f1:13:61:0e:36:4e:
                    6b:3c:5f:a4:13:9d:40:17:64:1d:9d:fd:be:21:06:
                    c5:97
                Exponent: 65537 (0x10001)
        Attributes:
        Requested Extensions:
            X509v3 Basic Constraints: 
                CA:FALSE
            X509v3 Key Usage: critical
                Certificate Sign, CRL Sign
            X509v3 Subject Alternative Name: 
                URI:undefined
    Signature Algorithm: sha256WithRSAEncryption
        08:da:32:65:ab:d2:42:62:40:09:cb:1d:5e:26:7f:9b:1b:c5:
        a1:29:ba:0a:39:64:b4:67:9a:c4:4e:cb:ca:83:e0:80:f5:d6:
        d8:89:c8:76:78:e6:bd:da:89:a5:b8:94:f2:de:59:f0:c8:a2:
        e3:e7:05:4f:1d:ac:55:e2:4d:66:7e:a3:88:fb:e6:7f:98:e0:
        b7:f8:2f:f5:ba:ca:1b:2c:62:a6:3d:c4:c9:01:e2:d4:c0:ca:
        a5:6c:f2:5c:91:d8:03:14:38:8a:4b:b6:d6:30:ba:3c:3c:2f:
        76:ee:17:88:e8:aa:96:88:80:8f:ea:97:d7:46:01:7e:d9:03:
        46:0a:b3:34:9e:ec:da:c0:97:e3:6f:e2:78:11:9f:2a:10:a0:
        7c:d7:f3:9c:82:a2:9d:48:ab:7e:2e:9c:af:c2:e4:a7:76:94:
        47:b7:f5:6f:d6:46:b4:b0:2d:18:82:8b:16:c3:e3:34:27:a4:
        d3:d8:fb:d7:4b:0a:66:bd:02:6d:fe:a2:ca:22:81:54:bc:5d:
        b0:52:7e:18:8f:14:0c:af:fe:cc:d3:37:af:c9:f2:39:2f:a9:
        28:8f:cb:cf:a0:f9:a5:7e:f5:c4:f3:d0:dd:e4:b1:92:eb:28:
        1e:58:01:c1:f9:d0:cc:16:91:2c:c2:b7:a5:4f:07:80:67:f3:
        b2:3f:30:61
-----BEGIN CERTIFICATE REQUEST-----
MIICvDCCAaQCAQAwNTELMAkGA1UEBhMCRlIxEjAQBgNVBAoMCU5vZGVPUENVQTES
MBAGA1UEAwwJTm9kZU9QQ1VBMIIBIjANBgkqhkiG9w0BAQEFAAOCAQ8AMIIBCgKC
AQEAq/JPwU94fWwQsZ94AOwITWnQXa9zRaDIlfiFS+YVZdI4hNbzYoIeDpYhVbrq
Y7aOGlbZ4y7D5BLaHM7cJxe2TlcJmqkq9rjIUr1XLobk2cfdoVcrSKfA3JRJ1QFI
NSGdeVzUiZHNTF0kDm/JIQWCt1gu8o/7li263nNaJYq74MWZa5CZ+zpIqz8vwkoa
Gpps765hFsGtSNBCpwRMIx0qXnXaZm+WGeGg5e7htAMzxL2+jZHOPanHTe8WB77U
jSR3AO2vnK0EWd0QbMhtHxAvERPDEXVx6L33rD2ta8LnCtUQKnXaoQwK/wrxE2EO
Nk5rPF+kE51AF2Qdnf2+IQbFlwIDAQABoEIwQAYJKoZIhvcNAQkOMTMwMTAJBgNV
HRMEAjAAMA4GA1UdDwEB/wQEAwIBBjAUBgNVHREEDTALhgl1bmRlZmluZWQwDQYJ
KoZIhvcNAQELBQADggEBAAjaMmWr0kJiQAnLHV4mf5sbxaEpugo5ZLRnmsROy8qD
4ID11tiJyHZ45r3aiaW4lPLeWfDIouPnBU8drFXiTWZ+o4j75n+Y4Lf4L/W6yhss
YqY9xMkB4tTAyqVs8lyR2AMUOIpLttYwujw8L3buF4joqpaIgI/ql9dGAX7ZA0YK
szSe7NrAl+Nv4ngRnyoQoHzX85yCop1Iq34unK/C5Kd2lEe39W/WRrSwLRiCixbD
4zQnpNPY+9dLCma9Am3+osoigVS8XbBSfhiPFAyv/szTN6/J8jkvqSiPy8+g+aV+
9cTz0N3ksZLrKB5YAcH50MwWkSzCt6VPB4Bn87I/MGE=
-----END CERTIFICATE REQUEST-----
