Certificate:
    Data:
        Version: 3 (0x2)
        Serial Number: 4104 (0x1008)
        Signature Algorithm: sha256WithRSAEncryption
        Issuer: C=FR, ST=IDF, L=Paris, O=Fake CA for Test, CN=NodeOPCUA
        Validity
            Not Before: Apr 11 09:10:35 2017 GMT
            Not After : Apr 11 09:10:35 2018 GMT
        Subject: O=NodeOPCUA, CN=NodeOPCUA
        Subject Public Key Info:
            Public Key Algorithm: rsaEncryption
            RSA Public Key: (1024 bit)
                Modulus (1024 bit):
                    00:c6:1b:d7:0b:23:73:59:90:01:e8:ab:60:98:da:
                    6d:a8:b2:aa:22:f4:2c:12:dd:e3:0b:29:31:0c:ad:
                    44:f8:83:a8:0f:fc:4c:50:24:d4:2d:d5:74:6f:73:
                    40:00:20:96:6a:d7:76:ef:7e:be:3b:b2:98:ac:3d:
                    6f:99:90:50:12:71:3a:6d:4c:22:42:10:ec:39:81:
                    fa:dd:9d:da:df:26:6a:2a:ba:02:c7:9d:5e:d2:4b:
                    ad:c2:bf:d7:af:28:85:41:64:ba:a0:53:bb:73:db:
                    ca:97:4e:f8:85:ca:b9:96:bf:79:37:80:75:be:0d:
                    9b:15:88:bc:ce:f2:c4:38:a3
                Exponent: 65537 (0x10001)
        X509v3 extensions:
            X509v3 Basic Constraints: critical
                CA:FALSE
            X509v3 Subject Key Identifier: 
                7B:B1:9B:11:1C:6D:B7:01:A7:66:32:CC:A0:35:96:54:87:17:B6:3C
            X509v3 Authority Key Identifier: 
                keyid:77:9B:44:5F:3A:C0:AD:26:EF:E1:9D:BA:B2:25:FC:90:0F:5D:59:77
                DirName:/C=FR/ST=IDF/L=Paris/O=Fake CA for Test/CN=NodeOPCUA
                serial:B9:27:C6:02:5B:D1:34:0B

            X509v3 Subject Alternative Name: 
                URI:urn:localhost:NodeOPCUA-DiscoveryServer, DNS:localhost, DNS:localhost
            Netscape Comment: 
                OpenSSL Generated Certificate
            X509v3 Key Usage: critical
                Digital Signature, Non Repudiation, Key Encipherment, Data Encipherment, Key Agreement, Certificate Sign
            X509v3 Extended Key Usage: critical
                TLS Web Server Authentication, TLS Web Client Authentication
    Signature Algorithm: sha256WithRSAEncryption
        bb:39:d9:0b:9c:fb:38:36:d7:51:18:d6:c2:20:2b:83:70:8a:
        93:0d:24:ac:97:bd:f0:0b:cc:f8:0c:52:90:f8:95:ab:21:28:
        3b:dc:6b:4d:8e:44:78:e8:54:6e:af:4f:98:62:5e:65:e7:19:
        46:00:51:9e:71:f0:e7:76:27:01:82:8b:e8:1f:da:81:30:58:
        9c:61:e3:b9:a3:5f:19:db:0e:99:9a:14:e5:7f:6c:19:31:9f:
        ca:a5:5b:70:de:ea:98:b0:74:f7:66:74:08:7e:d7:ef:93:1f:
        49:a6:52:6d:b3:c8:2a:92:fa:62:9f:b7:93:c7:87:0b:36:1b:
        62:05:b7:79:47:12:0e:91:4d:34:08:bd:07:94:7f:9a:57:58:
        2c:59:0e:23:27:da:3c:bb:70:9f:11:f3:7f:b4:c3:a7:ba:28:
        bd:1d:fa:be:43:54:9b:0f:20:e8:43:da:c2:8c:de:73:54:38:
        98:03:bf:6a:5d:83:00:90:ee:57:57:6b:70:03:52:31:39:b0:
        34:a0:75:c8:d8:2f:ae:ff:ef:5e:1f:0b:63:8d:37:1f:0c:00:
        f1:e2:40:5d:20:57:f4:df:8a:c1:5e:fe:dc:4f:2a:e6:d1:ef:
        c3:27:67:50:4d:71:8f:35:0e:47:17:ee:ee:08:c1:05:62:7a:
        27:52:fc:12
-----BEGIN CERTIFICATE-----
MIID5jCCAs6gAwIBAgICEAgwDQYJKoZIhvcNAQELBQAwWjELMAkGA1UEBhMCRlIx
DDAKBgNVBAgTA0lERjEOMAwGA1UEBxMFUGFyaXMxGTAXBgNVBAoTEEZha2UgQ0Eg
Zm9yIFRlc3QxEjAQBgNVBAMTCU5vZGVPUENVQTAeFw0xNzA0MTEwOTEwMzVaFw0x
ODA0MTEwOTEwMzVaMCgxEjAQBgNVBAoTCU5vZGVPUENVQTESMBAGA1UEAxMJTm9k
ZU9QQ1VBMIGfMA0GCSqGSIb3DQEBAQUAA4GNADCBiQKBgQDGG9cLI3NZkAHoq2CY
2m2osqoi9CwS3eMLKTEMrUT4g6gP/ExQJNQt1XRvc0AAIJZq13bvfr47spisPW+Z
kFAScTptTCJCEOw5gfrdndrfJmoqugLHnV7SS63Cv9evKIVBZLqgU7tz28qXTviF
yrmWv3k3gHW+DZsViLzO8sQ4owIDAQABo4IBajCCAWYwDAYDVR0TAQH/BAIwADAd
BgNVHQ4EFgQUe7GbERxttwGnZjLMoDWWVIcXtjwwgYwGA1UdIwSBhDCBgYAUd5tE
XzrArSbv4Z26siX8kA9dWXehXqRcMFoxCzAJBgNVBAYTAkZSMQwwCgYDVQQIEwNJ
REYxDjAMBgNVBAcTBVBhcmlzMRkwFwYDVQQKExBGYWtlIENBIGZvciBUZXN0MRIw
EAYDVQQDEwlOb2RlT1BDVUGCCQC5J8YCW9E0CzBIBgNVHREEQTA/hid1cm46bG9j
YWxob3N0Ok5vZGVPUENVQS1EaXNjb3ZlcnlTZXJ2ZXKCCWxvY2FsaG9zdIIJbG9j
YWxob3N0MCwGCWCGSAGG+EIBDQQfFh1PcGVuU1NMIEdlbmVyYXRlZCBDZXJ0aWZp
Y2F0ZTAOBgNVHQ8BAf8EBAMCAvwwIAYDVR0lAQH/BBYwFAYIKwYBBQUHAwEGCCsG
AQUFBwMCMA0GCSqGSIb3DQEBCwUAA4IBAQC7OdkLnPs4NtdRGNbCICuDcIqTDSSs
l73wC8z4DFKQ+JWrISg73GtNjkR46FRur0+YYl5l5xlGAFGecfDndicBgovoH9qB
MFicYeO5o18Z2w6ZmhTlf2wZMZ/KpVtw3uqYsHT3ZnQIftfvkx9JplJts8gqkvpi
n7eTx4cLNhtiBbd5RxIOkU00CL0HlH+aV1gsWQ4jJ9o8u3CfEfN/tMOnuii9Hfq+
Q1SbDyDoQ9rCjN5zVDiYA79qXYMAkO5XV2twA1IxObA0oHXI2C+u/+9eHwtjjTcf
DADx4kBdIFf034rBXv7cTyrm0e/DJ2dQTXGPNQ5HF+7uCMEFYnonUvwS
-----END CERTIFICATE-----
Certificate:
    Data:
        Version: 1 (0x0)
        Serial Number:
            b9:27:c6:02:5b:d1:34:0b
        Signature Algorithm: itu-t
        Issuer: C=FR, ST=IDF, L=Paris, O=Fake CA for Test, CN=NodeOPCUA
        Validity
            Not Before: Apr 12 09:10:36 2017 GMT
            Not After : Apr 10 09:10:36 2027 GMT
        Subject: C=FR, ST=IDF, L=Paris, O=Fake CA for Test, CN=NodeOPCUA
        Subject Public Key Info:
            Public Key Algorithm: rsaEncryption
            RSA Public Key: (2048 bit)
                Modulus (2048 bit):
                    00:d3:96:61:2c:1d:19:ec:52:8c:64:59:e0:89:75:
                    68:c1:7f:b4:37:ac:bc:55:29:1b:cc:d3:9e:77:03:
                    7e:66:0f:e0:ad:2e:97:d1:db:a3:cd:c9:cc:58:f6:
                    82:29:e7:3c:c2:5b:2e:57:30:4b:9e:d6:75:f2:01:
                    98:ec:ff:3c:ab:56:9e:8c:94:3f:b0:c5:34:3c:10:
                    a3:94:30:32:f1:a2:1a:7f:9b:20:1a:22:00:c7:62:
                    d4:30:41:b1:92:97:be:31:d3:12:d1:80:56:e5:60:
                    12:18:d2:48:27:73:db:8e:d4:e9:c4:b1:0a:c7:24:
                    31:4f:7a:44:f8:e8:88:30:d6:ab:77:e2:64:ba:a1:
                    83:07:a7:bf:be:a5:a3:c8:3b:af:e5:cb:81:05:9d:
                    cd:ae:98:5b:3d:23:8c:c4:0f:10:0c:55:ff:19:83:
                    45:ab:22:99:00:38:64:2b:62:8a:81:d5:1e:b8:c2:
                    c8:72:22:13:5c:df:75:90:62:c8:a4:8c:26:93:2b:
                    2b:8a:3f:59:b5:4d:8e:f9:81:ce:68:bb:72:34:43:
                    07:e9:33:02:d3:76:f5:a7:93:5c:ab:92:46:d7:73:
                    ce:f8:7e:af:91:37:34:68:2e:95:49:1a:6c:3d:ba:
                    4d:c5:c4:94:0c:9f:10:4b:d0:50:b2:5e:89:72:cd:
                    d2:cf
                Exponent: 65537 (0x10001)
    Signature Algorithm: itu-t
-----BEGIN CERTIFICATE-----
MIIEkjCCA3qgAwIBAgIJALknxgJb0TQLMA0GCSqGSIb3DQEBBQUAMFoxCzAJBgNV
BAYTAkZSMQwwCgYDVQQIEwNJREYxDjAMBgNVBAcTBVBhcmlzMRkwFwYDVQQKExBG
YWtlIENBIGZvciBUZXN0MRIwEAYDVQQDEwlOb2RlT1BDVUEwHhcNMTcwNDEyMDkx
MDM2WhcNMjcwNDEwMDkxMDM2WjBaMQswCQYDVQQGEwJGUjEMMAoGA1UECBMDSURG
MQ4wDAYDVQQHEwVQYXJpczEZMBcGA1UEChMQRmFrZSBDQSBmb3IgVGVzdDESMBAG
A1UEAxMJTm9kZU9QQ1VBMIIBIjANBgkqhkiG9w0BAQEFAAOCAQ8AMIIBCgKCAQEA
05ZhLB0Z7FKMZFngiXVowX+0N6y8VSkbzNOedwN+Zg/grS6X0dujzcnMWPaCKec8
wlsuVzBLntZ18gGY7P88q1aejJQ/sMU0PBCjlDAy8aIaf5sgGiIAx2LUMEGxkpe+
MdMS0YBW5WASGNJIJ3PbjtTpxLEKxyQxT3pE+OiIMNard+JkuqGDB6e/vqWjyDuv
5cuBBZ3NrphbPSOMxA8QDFX/GYNFqyKZADhkK2KKgdUeuMLIciITXN91kGLIpIwm
kysrij9ZtU2O+YHOaLtyNEMH6TMC03b1p5Ncq5JG13PO+H6vkTc0aC6VSRpsPbpN
xcSUDJ8QS9BQsl6Jcs3SzwIDAQABo4IBWTCCAVUwHQYDVR0OBBYEFHebRF86wK0m
7+GdurIl/JAPXVl3MIGMBgNVHSMEgYQwgYGAFHebRF86wK0m7+GdurIl/JAPXVl3
oV6kXDBaMQswCQYDVQQGEwJGUjEMMAoGA1UECBMDSURGMQ4wDAYDVQQHEwVQYXJp
czEZMBcGA1UEChMQRmFrZSBDQSBmb3IgVGVzdDESMBAGA1UEAxMJTm9kZU9QQ1VB
ggkAuSfGAlvRNAswDAYDVR0TBAUwAwEB/zAOBgNVHQ8BAf8EBAMCAQYwVwYJYIZI
AYb4QgENBEoWSENBIENlcnRpZmljYXRlIGdlbmVyYXRlZCBieSBOb2RlLU9QQ1VB
IENlcnRpZmljYXRlIHV0aWxpdHkgdXNpbmcgb3BlbnNzbDAuBgNVHR8EJzAlMCOg
IaAfhh1odHRwOi8vbG9jYWxob3N0Ojg5MDAvY3JsLnBlbTANBgkqhkiG9w0BAQUF
AAOCAQEAkvC4SR68ak9AD3ELw3fo+hDSnX8dl1Qns8ngKDHj/Nf0UfTLhjZpJsoU
WBeqIcge0+7YN4QWyYAnBgSZQDSWU7gIUY+GoH8TXKR8DCGRPX0FAFnHrTwpw8PW
myHB9MmVizdUJ6s262yb3CWMUsrysFJmEOPNOGsWrbAiYqRiidK/v6Tg71qc9aji
EcE2EMBNgGe66UnClI1eLOtEvbvjOMh2RUYtfpUUpGlBfKzs64PSmihFQQGBO6M3
A4v+2oFjU4GujQsFeVSHAVaoenwYj2LPYCChk156zIM/CvfSgl39QDlr/42ebAHg
p2jUGFzaF9SqiBvl4f0KjHeAzeDUfQ==
-----END CERTIFICATE-----
