Certificate:
    Data:
        Version: 3 (0x2)
        Serial Number: 4107 (0x100b)
        Signature Algorithm: sha256WithRSAEncryption
        Issuer: O=NodeOPCUA, CN=NodeOPCUA
        Validity
            Not Before: May  1 13:27:44 2017 GMT
            Not After : May  1 13:27:44 2018 GMT
        Subject: O=NodeOPCUA, CN=NodeOPCUA
        Subject Public Key Info:
            Public Key Algorithm: rsaEncryption
            RSA Public Key: (2048 bit)
                Modulus (2048 bit):
                    00:ab:f2:4f:c1:4f:78:7d:6c:10:b1:9f:78:00:ec:
                    08:4d:69:d0:5d:af:73:45:a0:c8:95:f8:85:4b:e6:
                    15:65:d2:38:84:d6:f3:62:82:1e:0e:96:21:55:ba:
                    ea:63:b6:8e:1a:56:d9:e3:2e:c3:e4:12:da:1c:ce:
                    dc:27:17:b6:4e:57:09:9a:a9:2a:f6:b8:c8:52:bd:
                    57:2e:86:e4:d9:c7:dd:a1:57:2b:48:a7:c0:dc:94:
                    49:d5:01:48:35:21:9d:79:5c:d4:89:91:cd:4c:5d:
                    24:0e:6f:c9:21:05:82:b7:58:2e:f2:8f:fb:96:2d:
                    ba:de:73:5a:25:8a:bb:e0:c5:99:6b:90:99:fb:3a:
                    48:ab:3f:2f:c2:4a:1a:1a:9a:6c:ef:ae:61:16:c1:
                    ad:48:d0:42:a7:04:4c:23:1d:2a:5e:75:da:66:6f:
                    96:19:e1:a0:e5:ee:e1:b4:03:33:c4:bd:be:8d:91:
                    ce:3d:a9:c7:4d:ef:16:07:be:d4:8d:24:77:00:ed:
                    af:9c:ad:04:59:dd:10:6c:c8:6d:1f:10:2f:11:13:
                    c3:11:75:71:e8:bd:f7:ac:3d:ad:6b:c2:e7:0a:d5:
                    10:2a:75:da:a1:0c:0a:ff:0a:f1:13:61:0e:36:4e:
                    6b:3c:5f:a4:13:9d:40:17:64:1d:9d:fd:be:21:06:
                    c5:97
                Exponent: 65537 (0x10001)
        X509v3 extensions:
            X509v3 Basic Constraints: critical
                CA:FALSE
            X509v3 Subject Key Identifier: 
                21:73:36:A7:13:E1:88:CD:5B:F2:96:AB:3E:A7:47:7B:A5:9E:65:BC
            X509v3 Authority Key Identifier: 
                keyid:21:73:36:A7:13:E1:88:CD:5B:F2:96:AB:3E:A7:47:7B:A5:9E:65:BC
                DirName:/O=NodeOPCUA/CN=NodeOPCUA
                serial:10:0B

            X509v3 Subject Alternative Name: 
                URI:urn:localhost:NodeOPCUA-DiscoveryServer, DNS:localhost, DNS:localhost
            Netscape Comment: 
                OpenSSL Generated Certificate
            X509v3 Key Usage: critical
                Digital Signature, Non Repudiation, Key Encipherment, Data Encipherment, Key Agreement, Certificate Sign
            X509v3 Extended Key Usage: critical
                TLS Web Server Authentication, TLS Web Client Authentication
    Signature Algorithm: sha256WithRSAEncryption
        8f:a5:ac:88:ff:db:ac:1c:ea:34:18:ed:14:0c:4c:06:9d:08:
        2f:de:d5:5a:6c:4a:e3:8e:17:b9:90:d6:b5:de:e4:bb:80:a0:
        3c:3d:4a:e0:1e:98:a7:1f:98:cd:c9:0e:ed:83:23:34:bc:52:
        a3:ec:51:8d:fb:6b:83:d7:c4:30:67:b4:1d:bd:b7:a6:3f:3c:
        26:ef:6c:9d:08:1d:01:43:63:c2:d9:a3:c8:83:bc:f4:02:9a:
        a0:72:3a:63:e4:fc:a5:2c:ab:4a:71:04:aa:2f:ce:96:ec:44:
        d0:cd:3b:e4:8b:d2:20:de:8a:0f:65:03:dd:c3:96:eb:24:cb:
        34:cd:27:1a:ef:88:a2:89:1b:2f:f0:e2:00:9f:14:ea:c6:99:
        77:db:43:80:6b:65:be:b5:cb:7b:b0:1d:af:b5:af:98:55:47:
        41:61:a4:8e:b6:3f:f2:bc:2b:85:1f:8d:e2:55:bd:ce:f4:93:
        dd:27:46:0d:80:a4:c5:31:bb:34:18:d3:f3:cf:96:aa:e8:6c:
        c3:0d:4a:3d:e2:66:9d:71:04:a2:bc:2f:7b:d7:98:f0:87:3c:
        f0:51:85:e0:36:08:60:4c:0a:07:22:da:5d:e9:3f:33:e7:52:
        32:e5:e4:c7:04:cb:fd:fc:2f:56:5a:c7:de:38:eb:37:5f:8d:
        f9:fc:04:a2
-----BEGIN CERTIFICATE-----
MIID/DCCAuSgAwIBAgICEAswDQYJKoZIhvcNAQELBQAwKDESMBAGA1UEChMJTm9k
ZU9QQ1VBMRIwEAYDVQQDEwlOb2RlT1BDVUEwHhcNMTcwNTAxMTMyNzQ0WhcNMTgw
NTAxMTMyNzQ0WjAoMRIwEAYDVQQKEwlOb2RlT1BDVUExEjAQBgNVBAMTCU5vZGVP
UENVQTCCASIwDQYJKoZIhvcNAQEBBQADggEPADCCAQoCggEBAKvyT8FPeH1sELGf
eADsCE1p0F2vc0WgyJX4hUvmFWXSOITW82KCHg6WIVW66mO2jhpW2eMuw+QS2hzO
3CcXtk5XCZqpKva4yFK9Vy6G5NnH3aFXK0inwNyUSdUBSDUhnXlc1ImRzUxdJA5v
ySEFgrdYLvKP+5Ytut5zWiWKu+DFmWuQmfs6SKs/L8JKGhqabO+uYRbBrUjQQqcE
TCMdKl512mZvlhnhoOXu4bQDM8S9vo2Rzj2px03vFge+1I0kdwDtr5ytBFndEGzI
bR8QLxETwxF1cei996w9rWvC5wrVECp12qEMCv8K8RNhDjZOazxfpBOdQBdkHZ39
viEGxZcCAwEAAaOCAS4wggEqMAwGA1UdEwEB/wQCMAAwHQYDVR0OBBYEFCFzNqcT
4YjNW/KWqz6nR3ulnmW8MFEGA1UdIwRKMEiAFCFzNqcT4YjNW/KWqz6nR3ulnmW8
oSykKjAoMRIwEAYDVQQKEwlOb2RlT1BDVUExEjAQBgNVBAMTCU5vZGVPUENVQYIC
EAswSAYDVR0RBEEwP4YndXJuOmxvY2FsaG9zdDpOb2RlT1BDVUEtRGlzY292ZXJ5
U2VydmVygglsb2NhbGhvc3SCCWxvY2FsaG9zdDAsBglghkgBhvhCAQ0EHxYdT3Bl
blNTTCBHZW5lcmF0ZWQgQ2VydGlmaWNhdGUwDgYDVR0PAQH/BAQDAgL8MCAGA1Ud
JQEB/wQWMBQGCCsGAQUFBwMBBggrBgEFBQcDAjANBgkqhkiG9w0BAQsFAAOCAQEA
j6WsiP/brBzqNBjtFAxMBp0IL97VWmxK444XuZDWtd7ku4CgPD1K4B6Ypx+YzckO
7YMjNLxSo+xRjftrg9fEMGe0Hb23pj88Ju9snQgdAUNjwtmjyIO89AKaoHI6Y+T8
pSyrSnEEqi/OluxE0M075IvSIN6KD2UD3cOW6yTLNM0nGu+IookbL/DiAJ8U6saZ
d9tDgGtlvrXLe7Adr7WvmFVHQWGkjrY/8rwrhR+N4lW9zvST3SdGDYCkxTG7NBjT
88+Wquhsww1KPeJmnXEEorwve9eY8Ic88FGF4DYIYEwKByLaXek/M+dSMuXkxwTL
/fwvVlrH3jjrN1+N+fwEog==
-----END CERTIFICATE-----
