Certificate Request:
    Data:
        Version: 0 (0x0)
        Subject: C=FR, O=NodeOPCUA, CN=NodeOPCUA
        Subject Public Key Info:
            Public Key Algorithm: rsaEncryption
            RSA Public Key: (1024 bit)
                Modulus (1024 bit):
                    00:c0:46:b2:0a:f7:9d:9f:2e:34:f8:d9:ea:ea:03:
                    a8:af:0c:26:f1:48:40:5f:be:75:da:4f:2c:11:d9:
                    96:0b:fe:7a:c6:bd:6f:20:5f:4b:12:e9:8d:ad:12:
                    c3:11:6a:ea:60:24:11:28:8a:57:99:cd:c4:cd:7d:
                    93:a8:b1:67:7c:c2:22:54:68:68:9e:f8:02:96:76:
                    bb:b8:92:00:d9:a5:cd:76:21:37:20:35:f2:6c:c3:
                    44:32:75:fa:ba:8e:88:ee:25:49:9b:14:1b:f1:cf:
                    0f:d2:c6:62:f1:9e:cd:14:d9:ef:96:b0:48:c5:92:
                    fb:e6:e2:ad:1a:20:42:b2:3b
                Exponent: 65537 (0x10001)
        Attributes:
        Requested Extensions:
            X509v3 Basic Constraints: 
                CA:FALSE
            X509v3 Key Usage: critical
                Certificate Sign, CRL Sign
            X509v3 Subject Alternative Name: 
                URI:undefined
    Signature Algorithm: sha256WithRSAEncryption
        21:6d:36:dc:fd:ee:4c:c5:2f:81:11:92:aa:d9:f3:24:80:c5:
        6f:3b:0e:1a:26:d7:7f:c0:19:92:95:f0:91:f6:15:e3:f3:12:
        f6:7c:7e:34:e4:67:6b:e8:ab:19:48:8d:af:3a:04:6b:43:8c:
        f8:81:76:9f:16:f8:3d:ce:9a:5e:17:78:bb:0f:2a:8a:ba:7d:
        f8:68:d0:24:e1:5c:c5:9f:21:d8:72:8e:18:33:0f:39:85:86:
        35:89:cd:76:18:c9:a7:47:af:b9:e1:f1:6d:7c:46:46:8c:87:
        6c:83:57:93:59:df:6f:ee:2f:e9:9f:85:c6:86:04:85:24:64:
        d0:4b
-----BEGIN CERTIFICATE REQUEST-----
MIIBtzCCASACAQAwNTELMAkGA1UEBhMCRlIxEjAQBgNVBAoMCU5vZGVPUENVQTES
MBAGA1UEAwwJTm9kZU9QQ1VBMIGfMA0GCSqGSIb3DQEBAQUAA4GNADCBiQKBgQDA
RrIK952fLjT42erqA6ivDCbxSEBfvnXaTywR2ZYL/nrGvW8gX0sS6Y2tEsMRaupg
JBEoileZzcTNfZOosWd8wiJUaGie+AKWdru4kgDZpc12ITcgNfJsw0Qydfq6joju
JUmbFBvxzw/SxmLxns0U2e+WsEjFkvvm4q0aIEKyOwIDAQABoEIwQAYJKoZIhvcN
AQkOMTMwMTAJBgNVHRMEAjAAMA4GA1UdDwEB/wQEAwIBBjAUBgNVHREEDTALhgl1
bmRlZmluZWQwDQYJKoZIhvcNAQELBQADgYEAIW023P3uTMUvgRGSqtnzJIDFbzsO
GibXf8AZkpXwkfYV4/MS9nx+NORna+irGUiNrzoEa0OM+IF2nxb4Pc6aXhd4uw8q
irp9+GjQJOFcxZ8h2HKOGDMPOYWGNYnNdhjJp0evueHxbXxGRoyHbINXk1nfb+4v
6Z+FxoYEhSRk0Es=
-----END CERTIFICATE REQUEST-----
