Certificate:
    Data:
        Version: 3 (0x2)
        Serial Number: 4105 (0x1009)
        Signature Algorithm: sha256WithRSAEncryption
        Issuer: O=NodeOPCUA, CN=NodeOPCUA
        Validity
            Not Before: May  1 13:27:44 2017 GMT
            Not After : May  1 13:27:44 2018 GMT
        Subject: O=NodeOPCUA, CN=NodeOPCUA
        Subject Public Key Info:
            Public Key Algorithm: rsaEncryption
            RSA Public Key: (1024 bit)
                Modulus (1024 bit):
                    00:c0:46:b2:0a:f7:9d:9f:2e:34:f8:d9:ea:ea:03:
                    a8:af:0c:26:f1:48:40:5f:be:75:da:4f:2c:11:d9:
                    96:0b:fe:7a:c6:bd:6f:20:5f:4b:12:e9:8d:ad:12:
                    c3:11:6a:ea:60:24:11:28:8a:57:99:cd:c4:cd:7d:
                    93:a8:b1:67:7c:c2:22:54:68:68:9e:f8:02:96:76:
                    bb:b8:92:00:d9:a5:cd:76:21:37:20:35:f2:6c:c3:
                    44:32:75:fa:ba:8e:88:ee:25:49:9b:14:1b:f1:cf:
                    0f:d2:c6:62:f1:9e:cd:14:d9:ef:96:b0:48:c5:92:
                    fb:e6:e2:ad:1a:20:42:b2:3b
                Exponent: 65537 (0x10001)
        X509v3 extensions:
            X509v3 Basic Constraints: critical
                CA:FALSE
            X509v3 Subject Key Identifier: 
                96:07:22:8A:31:20:F9:42:79:FF:93:DD:DC:28:97:5A:24:B5:4A:EC
            X509v3 Authority Key Identifier: 
                keyid:96:07:22:8A:31:20:F9:42:79:FF:93:DD:DC:28:97:5A:24:B5:4A:EC
                DirName:/O=NodeOPCUA/CN=NodeOPCUA
                serial:10:09

            X509v3 Subject Alternative Name: 
                URI:urn:localhost:NodeOPCUA-DiscoveryServer, DNS:localhost, DNS:localhost
            Netscape Comment: 
                OpenSSL Generated Certificate
            X509v3 Key Usage: critical
                Digital Signature, Non Repudiation, Key Encipherment, Data Encipherment, Key Agreement, Certificate Sign
            X509v3 Extended Key Usage: critical
                TLS Web Server Authentication, TLS Web Client Authentication
    Signature Algorithm: sha256WithRSAEncryption
        73:c5:4a:1d:68:d2:a7:44:83:96:c4:0c:ff:3a:69:e5:95:a7:
        26:48:7e:06:26:dc:e1:7b:a5:eb:e2:ad:ae:df:86:c2:d8:3e:
        5e:42:8b:48:76:7d:ae:7b:8c:10:c8:2b:c0:32:c6:ae:f6:0b:
        aa:79:fe:70:c7:64:1c:1d:2c:8c:e7:74:f0:00:83:1f:fb:ca:
        f1:e4:1a:1c:bf:ce:a3:fd:82:42:56:7a:f8:1b:5c:4f:1f:25:
        29:b0:aa:3d:09:ee:0f:cc:58:6d:a5:71:c0:30:b5:e0:7e:26:
        74:ce:a0:61:22:ab:45:5f:ae:0a:f8:bb:e7:08:a3:31:99:3e:
        b3:5c
-----BEGIN CERTIFICATE-----
MIIC9zCCAmCgAwIBAgICEAkwDQYJKoZIhvcNAQELBQAwKDESMBAGA1UEChMJTm9k
ZU9QQ1VBMRIwEAYDVQQDEwlOb2RlT1BDVUEwHhcNMTcwNTAxMTMyNzQ0WhcNMTgw
NTAxMTMyNzQ0WjAoMRIwEAYDVQQKEwlOb2RlT1BDVUExEjAQBgNVBAMTCU5vZGVP
UENVQTCBnzANBgkqhkiG9w0BAQEFAAOBjQAwgYkCgYEAwEayCvedny40+Nnq6gOo
rwwm8UhAX7512k8sEdmWC/56xr1vIF9LEumNrRLDEWrqYCQRKIpXmc3EzX2TqLFn
fMIiVGhonvgClna7uJIA2aXNdiE3IDXybMNEMnX6uo6I7iVJmxQb8c8P0sZi8Z7N
FNnvlrBIxZL75uKtGiBCsjsCAwEAAaOCAS4wggEqMAwGA1UdEwEB/wQCMAAwHQYD
VR0OBBYEFJYHIooxIPlCef+T3dwol1oktUrsMFEGA1UdIwRKMEiAFJYHIooxIPlC
ef+T3dwol1oktUrsoSykKjAoMRIwEAYDVQQKEwlOb2RlT1BDVUExEjAQBgNVBAMT
CU5vZGVPUENVQYICEAkwSAYDVR0RBEEwP4YndXJuOmxvY2FsaG9zdDpOb2RlT1BD
VUEtRGlzY292ZXJ5U2VydmVygglsb2NhbGhvc3SCCWxvY2FsaG9zdDAsBglghkgB
hvhCAQ0EHxYdT3BlblNTTCBHZW5lcmF0ZWQgQ2VydGlmaWNhdGUwDgYDVR0PAQH/
BAQDAgL8MCAGA1UdJQEB/wQWMBQGCCsGAQUFBwMBBggrBgEFBQcDAjANBgkqhkiG
9w0BAQsFAAOBgQBzxUodaNKnRIOWxAz/OmnllacmSH4GJtzhe6Xr4q2u34bC2D5e
QotIdn2ue4wQyCvAMsau9guqef5wx2QcHSyM53TwAIMf+8rx5Bocv86j/YJCVnr4
G1xPHyUpsKo9Ce4PzFhtpXHAMLXgfiZ0zqBhIqtFX64K+LvnCKMxmT6zXA==
-----END CERTIFICATE-----
