Certificate:
    Data:
        Version: 3 (0x2)
        Serial Number: 4106 (0x100a)
        Signature Algorithm: sha256WithRSAEncryption
        Issuer: O=NodeOPCUA, CN=NodeOPCUA
        Validity
            Not Before: Apr 11 09:10:35 2017 GMT
            Not After : Apr 11 09:10:35 2018 GMT
        Subject: O=NodeOPCUA, CN=NodeOPCUA
        Subject Public Key Info:
            Public Key Algorithm: rsaEncryption
            RSA Public Key: (1024 bit)
                Modulus (1024 bit):
                    00:c6:1b:d7:0b:23:73:59:90:01:e8:ab:60:98:da:
                    6d:a8:b2:aa:22:f4:2c:12:dd:e3:0b:29:31:0c:ad:
                    44:f8:83:a8:0f:fc:4c:50:24:d4:2d:d5:74:6f:73:
                    40:00:20:96:6a:d7:76:ef:7e:be:3b:b2:98:ac:3d:
                    6f:99:90:50:12:71:3a:6d:4c:22:42:10:ec:39:81:
                    fa:dd:9d:da:df:26:6a:2a:ba:02:c7:9d:5e:d2:4b:
                    ad:c2:bf:d7:af:28:85:41:64:ba:a0:53:bb:73:db:
                    ca:97:4e:f8:85:ca:b9:96:bf:79:37:80:75:be:0d:
                    9b:15:88:bc:ce:f2:c4:38:a3
                Exponent: 65537 (0x10001)
        X509v3 extensions:
            X509v3 Basic Constraints: critical
                CA:FALSE
            X509v3 Subject Key Identifier: 
                7B:B1:9B:11:1C:6D:B7:01:A7:66:32:CC:A0:35:96:54:87:17:B6:3C
            X509v3 Authority Key Identifier: 
                keyid:7B:B1:9B:11:1C:6D:B7:01:A7:66:32:CC:A0:35:96:54:87:17:B6:3C
                DirName:/O=NodeOPCUA/CN=NodeOPCUA
                serial:10:0A

            X509v3 Subject Alternative Name: 
                URI:urn:localhost:NodeOPCUA-DiscoveryServer, DNS:localhost, DNS:localhost
            Netscape Comment: 
                OpenSSL Generated Certificate
            X509v3 Key Usage: critical
                Digital Signature, Non Repudiation, Key Encipherment, Data Encipherment, Key Agreement, Certificate Sign
            X509v3 Extended Key Usage: critical
                TLS Web Server Authentication, TLS Web Client Authentication
    Signature Algorithm: sha256WithRSAEncryption
        aa:49:14:3b:ce:ac:e1:86:ab:38:7d:53:c6:77:97:9e:9d:7e:
        ac:49:f6:9e:73:d1:50:61:14:0b:48:a5:8c:b9:bc:ca:db:c8:
        84:8e:aa:be:32:c4:89:0b:64:fa:56:82:4c:68:be:c3:f8:23:
        48:25:87:99:da:d1:78:43:5b:89:86:4a:2b:b2:70:3d:db:fd:
        c1:59:f0:ad:36:fa:6d:02:95:a3:c1:8f:51:7f:9d:77:47:be:
        4a:b9:8b:53:e4:84:4b:aa:3d:be:cd:ad:b3:1c:5c:93:77:b1:
        eb:b9:dd:4e:2d:a8:34:08:6f:b4:f3:31:63:ef:c5:a5:bd:15:
        67:ca
-----BEGIN CERTIFICATE-----
MIIC9zCCAmCgAwIBAgICEAowDQYJKoZIhvcNAQELBQAwKDESMBAGA1UEChMJTm9k
ZU9QQ1VBMRIwEAYDVQQDEwlOb2RlT1BDVUEwHhcNMTcwNDExMDkxMDM1WhcNMTgw
NDExMDkxMDM1WjAoMRIwEAYDVQQKEwlOb2RlT1BDVUExEjAQBgNVBAMTCU5vZGVP
UENVQTCBnzANBgkqhkiG9w0BAQEFAAOBjQAwgYkCgYEAxhvXCyNzWZAB6KtgmNpt
qLKqIvQsEt3jCykxDK1E+IOoD/xMUCTULdV0b3NAACCWatd2736+O7KYrD1vmZBQ
EnE6bUwiQhDsOYH63Z3a3yZqKroCx51e0kutwr/XryiFQWS6oFO7c9vKl074hcq5
lr95N4B1vg2bFYi8zvLEOKMCAwEAAaOCAS4wggEqMAwGA1UdEwEB/wQCMAAwHQYD
VR0OBBYEFHuxmxEcbbcBp2YyzKA1llSHF7Y8MFEGA1UdIwRKMEiAFHuxmxEcbbcB
p2YyzKA1llSHF7Y8oSykKjAoMRIwEAYDVQQKEwlOb2RlT1BDVUExEjAQBgNVBAMT
CU5vZGVPUENVQYICEAowSAYDVR0RBEEwP4YndXJuOmxvY2FsaG9zdDpOb2RlT1BD
VUEtRGlzY292ZXJ5U2VydmVygglsb2NhbGhvc3SCCWxvY2FsaG9zdDAsBglghkgB
hvhCAQ0EHxYdT3BlblNTTCBHZW5lcmF0ZWQgQ2VydGlmaWNhdGUwDgYDVR0PAQH/
BAQDAgL8MCAGA1UdJQEB/wQWMBQGCCsGAQUFBwMBBggrBgEFBQcDAjANBgkqhkiG
9w0BAQsFAAOBgQCqSRQ7zqzhhqs4fVPGd5eenX6sSfaec9FQYRQLSKWMubzK28iE
jqq+MsSJC2T6VoJMaL7D+CNIJYeZ2tF4Q1uJhkorsnA92/3BWfCtNvptApWjwY9R
f513R75KuYtT5IRLqj2+za2zHFyTd7Hrud1OLag0CG+08zFj78WlvRVnyg==
-----END CERTIFICATE-----
