Certificate:
    Data:
        Version: 3 (0x2)
        Serial Number: 4106 (0x100a)
        Signature Algorithm: sha256WithRSAEncryption
        Issuer: C=FR, ST=IDF, L=Paris, O=Local NODE-OPCUA Certificate Authority, CN=NodeOPCUA-CA
        Validity
            Not Before: May  1 13:27:44 2017 GMT
            Not After : May  1 13:27:44 2018 GMT
        Subject: C=FR, O=NodeOPCUA, CN=NodeOPCUA
        Subject Public Key Info:
            Public Key Algorithm: rsaEncryption
            RSA Public Key: (2048 bit)
                Modulus (2048 bit):
                    00:ab:f2:4f:c1:4f:78:7d:6c:10:b1:9f:78:00:ec:
                    08:4d:69:d0:5d:af:73:45:a0:c8:95:f8:85:4b:e6:
                    15:65:d2:38:84:d6:f3:62:82:1e:0e:96:21:55:ba:
                    ea:63:b6:8e:1a:56:d9:e3:2e:c3:e4:12:da:1c:ce:
                    dc:27:17:b6:4e:57:09:9a:a9:2a:f6:b8:c8:52:bd:
                    57:2e:86:e4:d9:c7:dd:a1:57:2b:48:a7:c0:dc:94:
                    49:d5:01:48:35:21:9d:79:5c:d4:89:91:cd:4c:5d:
                    24:0e:6f:c9:21:05:82:b7:58:2e:f2:8f:fb:96:2d:
                    ba:de:73:5a:25:8a:bb:e0:c5:99:6b:90:99:fb:3a:
                    48:ab:3f:2f:c2:4a:1a:1a:9a:6c:ef:ae:61:16:c1:
                    ad:48:d0:42:a7:04:4c:23:1d:2a:5e:75:da:66:6f:
                    96:19:e1:a0:e5:ee:e1:b4:03:33:c4:bd:be:8d:91:
                    ce:3d:a9:c7:4d:ef:16:07:be:d4:8d:24:77:00:ed:
                    af:9c:ad:04:59:dd:10:6c:c8:6d:1f:10:2f:11:13:
                    c3:11:75:71:e8:bd:f7:ac:3d:ad:6b:c2:e7:0a:d5:
                    10:2a:75:da:a1:0c:0a:ff:0a:f1:13:61:0e:36:4e:
                    6b:3c:5f:a4:13:9d:40:17:64:1d:9d:fd:be:21:06:
                    c5:97
                Exponent: 65537 (0x10001)
        X509v3 extensions:
            X509v3 Basic Constraints: critical
                CA:FALSE
            X509v3 Subject Key Identifier: 
                21:73:36:A7:13:E1:88:CD:5B:F2:96:AB:3E:A7:47:7B:A5:9E:65:BC
            X509v3 Authority Key Identifier: 
                keyid:8A:FF:87:2D:B2:76:79:F7:6F:3C:79:77:5B:49:6C:9C:49:03:E6:A4
                DirName:/C=FR/ST=IDF/L=Paris/O=Local NODE-OPCUA Certificate Authority/CN=NodeOPCUA-CA
                serial:D6:7C:D6:E6:02:18:3C:DA

            X509v3 Subject Alternative Name: 
                URI:urn:localhost:NodeOPCUA-DiscoveryServer, DNS:localhost, DNS:localhost
            Netscape Comment: 
                OpenSSL Generated Certificate
            X509v3 Key Usage: critical
                Digital Signature, Non Repudiation, Key Encipherment, Data Encipherment, Key Agreement, Certificate Sign
            X509v3 Extended Key Usage: critical
                TLS Web Server Authentication, TLS Web Client Authentication
    Signature Algorithm: sha256WithRSAEncryption
        92:7e:41:a5:ee:99:48:a1:c8:d3:f1:87:a6:10:86:45:ae:3a:
        f8:5d:43:78:bd:27:e0:61:b1:c3:58:c9:53:39:04:f1:d7:94:
        7d:80:6a:fb:db:83:29:8a:67:2d:cc:68:30:31:7d:1e:70:cf:
        3b:80:64:80:05:b9:3a:6a:53:31:67:28:82:52:7b:ea:ba:e3:
        59:a0:a1:c1:0b:60:59:9b:f1:bc:30:8f:49:ea:bc:7a:d1:87:
        f0:68:02:5f:9c:aa:3f:46:80:e8:a4:d7:ac:c1:16:ec:e7:b8:
        e7:96:1e:f0:1b:bf:12:6d:b5:99:59:96:40:fb:f8:dc:95:26:
        93:f5:4f:99:48:a1:27:66:46:7e:96:21:ab:92:cf:b6:75:34:
        d0:b8:a8:a9:78:b5:82:0e:66:27:2d:4a:93:7f:32:a5:65:58:
        67:42:b4:50:ca:32:c9:ce:89:ff:0c:7b:ec:2d:4a:85:b2:42:
        14:71:49:28:c6:ed:2e:bd:7d:94:fa:be:5a:bd:1c:11:96:5f:
        be:c0:a1:36:2f:b2:e0:1d:0d:e9:47:ca:17:d2:a2:e6:43:dc:
        0b:46:99:17:04:8a:86:c2:84:6a:c4:bf:a6:9f:a8:b9:85:a3:
        ee:97:8f:0a:d5:f8:99:b6:fd:0b:84:c9:3b:2b:6d:56:0b:b7:
        64:1b:d8:40
-----BEGIN CERTIFICATE-----
MIIEqTCCA5GgAwIBAgICEAowDQYJKoZIhvcNAQELBQAwczELMAkGA1UEBhMCRlIx
DDAKBgNVBAgTA0lERjEOMAwGA1UEBxMFUGFyaXMxLzAtBgNVBAoTJkxvY2FsIE5P
REUtT1BDVUEgQ2VydGlmaWNhdGUgQXV0aG9yaXR5MRUwEwYDVQQDEwxOb2RlT1BD
VUEtQ0EwHhcNMTcwNTAxMTMyNzQ0WhcNMTgwNTAxMTMyNzQ0WjA1MQswCQYDVQQG
EwJGUjESMBAGA1UECgwJTm9kZU9QQ1VBMRIwEAYDVQQDDAlOb2RlT1BDVUEwggEi
MA0GCSqGSIb3DQEBAQUAA4IBDwAwggEKAoIBAQCr8k/BT3h9bBCxn3gA7AhNadBd
r3NFoMiV+IVL5hVl0jiE1vNigh4OliFVuupjto4aVtnjLsPkEtocztwnF7ZOVwma
qSr2uMhSvVcuhuTZx92hVytIp8DclEnVAUg1IZ15XNSJkc1MXSQOb8khBYK3WC7y
j/uWLbrec1olirvgxZlrkJn7OkirPy/CShoammzvrmEWwa1I0EKnBEwjHSpeddpm
b5YZ4aDl7uG0AzPEvb6Nkc49qcdN7xYHvtSNJHcA7a+crQRZ3RBsyG0fEC8RE8MR
dXHovfesPa1rwucK1RAqddqhDAr/CvETYQ42Tms8X6QTnUAXZB2d/b4hBsWXAgMB
AAGjggGDMIIBfzAMBgNVHRMBAf8EAjAAMB0GA1UdDgQWBBQhczanE+GIzVvylqs+
p0d7pZ5lvDCBpQYDVR0jBIGdMIGagBSK/4ctsnZ59288eXdbSWycSQPmpKF3pHUw
czELMAkGA1UEBhMCRlIxDDAKBgNVBAgTA0lERjEOMAwGA1UEBxMFUGFyaXMxLzAt
BgNVBAoTJkxvY2FsIE5PREUtT1BDVUEgQ2VydGlmaWNhdGUgQXV0aG9yaXR5MRUw
EwYDVQQDEwxOb2RlT1BDVUEtQ0GCCQDWfNbmAhg82jBIBgNVHREEQTA/hid1cm46
bG9jYWxob3N0Ok5vZGVPUENVQS1EaXNjb3ZlcnlTZXJ2ZXKCCWxvY2FsaG9zdIIJ
bG9jYWxob3N0MCwGCWCGSAGG+EIBDQQfFh1PcGVuU1NMIEdlbmVyYXRlZCBDZXJ0
aWZpY2F0ZTAOBgNVHQ8BAf8EBAMCAvwwIAYDVR0lAQH/BBYwFAYIKwYBBQUHAwEG
CCsGAQUFBwMCMA0GCSqGSIb3DQEBCwUAA4IBAQCSfkGl7plIocjT8YemEIZFrjr4
XUN4vSfgYbHDWMlTOQTx15R9gGr724MpimctzGgwMX0ecM87gGSABbk6alMxZyiC
UnvquuNZoKHBC2BZm/G8MI9J6rx60YfwaAJfnKo/RoDopNeswRbs57jnlh7wG78S
bbWZWZZA+/jclSaT9U+ZSKEnZkZ+liGrks+2dTTQuKipeLWCDmYnLUqTfzKlZVhn
QrRQyjLJzon/DHvsLUqFskIUcUkoxu0uvX2U+r5avRwRll++wKE2L7LgHQ3pR8oX
0qLmQ9wLRpkXBIqGwoRqxL+mn6i5haPul48K1fiZtv0LhMk7K21WC7dkG9hA
-----END CERTIFICATE-----
Certificate:
    Data:
        Version: 1 (0x0)
        Serial Number:
            d6:7c:d6:e6:02:18:3c:da
        Signature Algorithm: itu-t
        Issuer: C=FR, ST=IDF, L=Paris, O=Local NODE-OPCUA Certificate Authority, CN=NodeOPCUA-CA
        Validity
            Not Before: May  2 13:27:45 2017 GMT
            Not After : Apr 30 13:27:45 2027 GMT
        Subject: C=FR, ST=IDF, L=Paris, O=Local NODE-OPCUA Certificate Authority, CN=NodeOPCUA-CA
        Subject Public Key Info:
            Public Key Algorithm: rsaEncryption
            RSA Public Key: (2048 bit)
                Modulus (2048 bit):
                    00:cf:64:b2:28:0f:3c:d7:88:38:91:a3:76:2f:ba:
                    7b:98:76:46:4b:c3:a0:8d:72:fa:7b:f1:33:fd:2b:
                    9f:bc:ae:2d:61:ae:6a:3c:24:03:3b:bd:22:52:70:
                    2c:e8:a3:59:fc:6e:ed:8f:f1:db:b3:7b:c0:fe:8e:
                    18:56:db:55:ee:b5:ce:e1:ff:7d:1b:3f:ca:b3:9a:
                    b6:45:2c:2d:06:44:04:d2:92:0a:c9:f7:3a:79:72:
                    50:3d:ca:2e:9c:d1:6d:74:2a:54:e0:db:1f:c1:d9:
                    ed:ca:55:bb:c9:3c:5d:2e:bb:2f:c3:1c:94:6e:b4:
                    bf:85:d2:f8:77:ed:01:63:62:e4:d5:88:44:62:51:
                    9d:7b:7f:bc:25:cc:7d:42:3f:e8:d4:8b:b8:ad:4e:
                    60:47:47:d1:61:f6:cb:56:b9:b1:5b:8d:26:1b:c4:
                    cd:fb:20:bb:af:3f:6e:ca:3d:65:23:99:dd:1e:0c:
                    73:43:92:dc:4c:61:4b:fa:c6:25:db:47:54:e8:6b:
                    5b:72:e9:74:5c:dd:a4:47:00:98:49:37:59:6f:07:
                    2b:56:a9:a2:9b:23:70:16:7a:87:dc:cc:ac:6b:f8:
                    11:49:b3:52:c3:11:4f:2a:ea:ef:ff:35:42:28:e5:
                    2c:2a:f0:2e:70:1b:73:64:b1:12:f8:d9:65:0b:06:
                    c9:b9
                Exponent: 65537 (0x10001)
    Signature Algorithm: itu-t
-----BEGIN CERTIFICATE-----
MIIE3TCCA8WgAwIBAgIJANZ81uYCGDzaMA0GCSqGSIb3DQEBCwUAMHMxCzAJBgNV
BAYTAkZSMQwwCgYDVQQIEwNJREYxDjAMBgNVBAcTBVBhcmlzMS8wLQYDVQQKEyZM
b2NhbCBOT0RFLU9QQ1VBIENlcnRpZmljYXRlIEF1dGhvcml0eTEVMBMGA1UEAxMM
Tm9kZU9QQ1VBLUNBMB4XDTE3MDUwMjEzMjc0NVoXDTI3MDQzMDEzMjc0NVowczEL
MAkGA1UEBhMCRlIxDDAKBgNVBAgTA0lERjEOMAwGA1UEBxMFUGFyaXMxLzAtBgNV
BAoTJkxvY2FsIE5PREUtT1BDVUEgQ2VydGlmaWNhdGUgQXV0aG9yaXR5MRUwEwYD
VQQDEwxOb2RlT1BDVUEtQ0EwggEiMA0GCSqGSIb3DQEBAQUAA4IBDwAwggEKAoIB
AQDPZLIoDzzXiDiRo3YvunuYdkZLw6CNcvp78TP9K5+8ri1hrmo8JAM7vSJScCzo
o1n8bu2P8duze8D+jhhW21Xutc7h/30bP8qzmrZFLC0GRATSkgrJ9zp5clA9yi6c
0W10KlTg2x/B2e3KVbvJPF0uuy/DHJRutL+F0vh37QFjYuTViERiUZ17f7wlzH1C
P+jUi7itTmBHR9Fh9stWubFbjSYbxM37ILuvP27KPWUjmd0eDHNDktxMYUv6xiXb
R1Toa1ty6XRc3aRHAJhJN1lvBytWqaKbI3AWeofczKxr+BFJs1LDEU8q6u//NUIo
5Swq8C5wG3NksRL42WULBsm5AgMBAAGjggFyMIIBbjAdBgNVHQ4EFgQUiv+HLbJ2
efdvPHl3W0lsnEkD5qQwgaUGA1UdIwSBnTCBmoAUiv+HLbJ2efdvPHl3W0lsnEkD
5qShd6R1MHMxCzAJBgNVBAYTAkZSMQwwCgYDVQQIEwNJREYxDjAMBgNVBAcTBVBh
cmlzMS8wLQYDVQQKEyZMb2NhbCBOT0RFLU9QQ1VBIENlcnRpZmljYXRlIEF1dGhv
cml0eTEVMBMGA1UEAxMMTm9kZU9QQ1VBLUNBggkA1nzW5gIYPNowDAYDVR0TBAUw
AwEB/zAOBgNVHQ8BAf8EBAMCAQYwVwYJYIZIAYb4QgENBEoWSENBIENlcnRpZmlj
YXRlIGdlbmVyYXRlZCBieSBOb2RlLU9QQ1VBIENlcnRpZmljYXRlIHV0aWxpdHkg
dXNpbmcgb3BlbnNzbDAuBgNVHR8EJzAlMCOgIaAfhh1odHRwOi8vbG9jYWxob3N0
Ojg5MDAvY3JsLnBlbTANBgkqhkiG9w0BAQsFAAOCAQEAhOV1H8KMzSfzS/usRVsU
/i1/kuqLapXBccAA67fGa2TsuOMXglXy2gT0mg4bInnYnFI/NIEiri/sRTAe+WK1
36BY09gqGJKX8vJpRkIJ6OLxm6DI30+LK7wOdxyaqlSFUfKUzCbubTclpE0m/Lsi
K/TG/X3Tvlc56WKiwmY5uMHLqyLZRDn9Z+Q9wr+trsnRv9DuzDjQec3EXsAhQWZj
dl2xmPjNddnsSAxcKzO4JleebQylZUR3fJGkSRPE9/ODiUJ++Smy8nU5+fIVh4yw
lpvDmBnoInasqWogjL6E2sv/4EBMakTjiBuYC/NA+vKlr+PBO5RMZWppOJwYcfDn
aQ==
-----END CERTIFICATE-----
