Certificate Request:
    Data:
        Version: 0 (0x0)
        Subject: C=FR, O=NodeOPCUA, CN=NodeOPCUA
        Subject Public Key Info:
            Public Key Algorithm: rsaEncryption
            RSA Public Key: (2048 bit)
                Modulus (2048 bit):
                    00:a9:89:93:a4:b2:3d:22:78:8e:64:18:33:a2:ef:
                    f5:ed:be:83:66:da:df:ab:72:d4:bf:25:a7:7f:e7:
                    bd:31:2d:2b:9f:a0:d3:f5:59:6c:0e:ca:39:a3:45:
                    bf:f0:dc:f4:de:49:a3:09:94:7a:64:60:be:cf:2d:
                    53:d8:0b:e0:eb:19:58:78:eb:92:62:7a:59:bd:a1:
                    3a:73:da:8c:ff:86:ce:cc:98:d0:d5:6c:b8:e8:51:
                    3e:b6:fa:0b:d0:62:fa:06:28:a2:ac:8a:de:43:70:
                    a0:a6:42:04:7e:79:a5:a2:4a:4c:6d:8f:63:e3:23:
                    60:b5:4f:9c:60:b4:53:b1:e8:23:7f:cd:bb:d3:0a:
                    4e:d0:d2:42:0e:ce:ee:ff:78:89:96:56:63:9e:e9:
                    81:40:19:53:57:c0:19:c1:4a:e6:2e:c9:17:88:c7:
                    d8:ac:9f:97:c6:f2:b3:64:35:05:ea:6a:95:27:bc:
                    3c:9c:88:d3:fc:e0:ab:f6:73:77:72:1e:33:6b:31:
                    fd:14:40:1c:91:0b:f2:7c:fd:74:ea:06:c9:c7:4b:
                    6c:77:84:c1:b3:fc:2f:78:26:55:2b:f9:5a:4e:f6:
                    fe:d0:b2:9a:c5:a9:1c:b6:6d:c5:53:5a:b7:03:1a:
                    28:c3:81:6b:3c:e9:61:6f:35:44:25:4f:42:47:2f:
                    d1:d5
                Exponent: 65537 (0x10001)
        Attributes:
        Requested Extensions:
            X509v3 Basic Constraints: 
                CA:FALSE
            X509v3 Key Usage: critical
                Certificate Sign, CRL Sign
            X509v3 Subject Alternative Name: 
                URI:undefined
    Signature Algorithm: sha256WithRSAEncryption
        19:61:84:bc:25:da:54:34:d3:6d:b5:86:37:bc:42:d8:07:e1:
        57:cc:3e:93:ff:2f:70:43:f2:27:1c:c9:ea:f5:23:eb:c6:b0:
        c2:19:ad:e9:3d:a6:55:0e:03:85:b0:df:f9:b4:02:39:d5:5c:
        c3:0b:35:f6:9a:6f:6a:4c:62:df:83:a4:42:3d:4d:16:7f:85:
        b1:53:ce:76:2c:13:d9:8b:4a:8f:7b:1d:3e:f6:62:9a:c2:3e:
        b3:2b:36:ea:d5:df:3d:6b:85:fb:33:2f:0f:e6:e8:47:bf:cd:
        2d:33:1c:df:5b:f5:98:90:b1:b7:03:cc:49:86:13:b5:35:86:
        14:23:73:7c:2e:91:82:75:9d:83:7b:f6:05:b9:58:e8:6a:72:
        79:64:38:32:f6:29:3f:27:ae:a3:ab:03:20:18:9b:db:a6:b3:
        44:3c:2d:8d:0e:3a:d9:ba:3a:9d:f7:cc:12:05:b1:f3:a6:2c:
        21:06:20:59:27:85:5f:6c:25:34:95:32:a0:c2:75:0f:62:5f:
        d4:83:dd:e7:10:21:fc:d4:2d:e3:7f:c8:14:be:e0:14:46:8b:
        c3:eb:c0:03:f0:ab:ad:61:b8:36:09:d8:bc:8d:d1:a0:fd:1d:
        86:75:77:b4:bb:f3:b5:a5:20:e5:66:6e:56:18:99:46:ab:31:
        94:82:85:bd
-----BEGIN CERTIFICATE REQUEST-----
MIICvDCCAaQCAQAwNTELMAkGA1UEBhMCRlIxEjAQBgNVBAoMCU5vZGVPUENVQTES
MBAGA1UEAwwJTm9kZU9QQ1VBMIIBIjANBgkqhkiG9w0BAQEFAAOCAQ8AMIIBCgKC
AQEAqYmTpLI9IniOZBgzou/17b6DZtrfq3LUvyWnf+e9MS0rn6DT9VlsDso5o0W/
8Nz03kmjCZR6ZGC+zy1T2Avg6xlYeOuSYnpZvaE6c9qM/4bOzJjQ1Wy46FE+tvoL
0GL6BiiirIreQ3CgpkIEfnmlokpMbY9j4yNgtU+cYLRTsegjf8270wpO0NJCDs7u
/3iJllZjnumBQBlTV8AZwUrmLskXiMfYrJ+XxvKzZDUF6mqVJ7w8nIjT/OCr9nN3
ch4zazH9FEAckQvyfP106gbJx0tsd4TBs/wveCZVK/laTvb+0LKaxakctm3FU1q3
Axoow4FrPOlhbzVEJU9CRy/R1QIDAQABoEIwQAYJKoZIhvcNAQkOMTMwMTAJBgNV
HRMEAjAAMA4GA1UdDwEB/wQEAwIBBjAUBgNVHREEDTALhgl1bmRlZmluZWQwDQYJ
KoZIhvcNAQELBQADggEBABlhhLwl2lQ00221hje8QtgH4VfMPpP/L3BD8iccyer1
I+vGsMIZrek9plUOA4Ww3/m0AjnVXMMLNfaab2pMYt+DpEI9TRZ/hbFTznYsE9mL
So97HT72YprCPrMrNurV3z1rhfszLw/m6Ee/zS0zHN9b9ZiQsbcDzEmGE7U1hhQj
c3wukYJ1nYN79gW5WOhqcnlkODL2KT8nrqOrAyAYm9ums0Q8LY0OOtm6Op33zBIF
sfOmLCEGIFknhV9sJTSVMqDCdQ9iX9SD3ecQIfzULeN/yBS+4BRGi8PrwAPwq61h
uDYJ2LyN0aD9HYZ1d7S787WlIOVmblYYmUarMZSChb0=
-----END CERTIFICATE REQUEST-----
