Certificate Request:
    Data:
        Version: 0 (0x0)
        Subject: C=FR, O=NodeOPCUA, CN=NodeOPCUA
        Subject Public Key Info:
            Public Key Algorithm: rsaEncryption
            RSA Public Key: (1024 bit)
                Modulus (1024 bit):
                    00:bd:04:06:71:34:b1:11:e5:1c:30:49:98:43:f4:
                    a8:6c:65:a6:35:0e:e2:f2:e4:fd:26:4d:c9:b8:70:
                    8d:9d:e2:fc:6b:15:9d:d5:8a:06:0f:2d:51:79:5e:
                    9b:a1:a9:8c:60:03:27:1e:45:6b:bc:60:dc:a5:b7:
                    77:3e:57:9e:db:93:cf:0f:d1:bf:ee:6d:50:d2:65:
                    7e:bc:a4:dc:86:cf:cf:f8:76:b7:88:78:1c:f8:54:
                    7c:1b:ee:f9:68:ef:08:a9:af:fa:f6:90:d0:2f:58:
                    3d:9b:68:17:51:2e:f2:3f:42:40:c5:c8:24:42:c5:
                    3a:f1:c3:de:26:af:dc:a6:f3
                Exponent: 65537 (0x10001)
        Attributes:
        Requested Extensions:
            X509v3 Basic Constraints: 
                CA:FALSE
            X509v3 Key Usage: critical
                Certificate Sign, CRL Sign
            X509v3 Subject Alternative Name: 
                URI:undefined
    Signature Algorithm: sha256WithRSAEncryption
        6b:15:29:44:9c:34:31:83:ee:c7:69:cc:f1:7e:26:b1:be:60:
        14:da:66:77:9c:6b:78:7b:61:66:0b:75:30:c6:66:67:b4:d3:
        34:3f:92:10:0a:6a:5b:ad:18:b0:97:c0:6f:7c:a5:3b:e8:74:
        db:eb:c4:28:56:9c:50:bc:5b:4b:19:fa:09:ac:13:d9:de:2d:
        a2:9e:1c:b7:38:f5:14:30:ef:a2:8c:fc:d4:dc:79:29:f2:48:
        41:31:1c:9d:60:01:51:1b:52:2b:76:27:f2:cc:be:3f:bd:f7:
        34:3f:38:47:18:ea:72:82:54:2a:ab:c9:8c:72:25:c6:08:2e:
        56:40
-----BEGIN CERTIFICATE REQUEST-----
MIIBtzCCASACAQAwNTELMAkGA1UEBhMCRlIxEjAQBgNVBAoMCU5vZGVPUENVQTES
MBAGA1UEAwwJTm9kZU9QQ1VBMIGfMA0GCSqGSIb3DQEBAQUAA4GNADCBiQKBgQC9
BAZxNLER5RwwSZhD9KhsZaY1DuLy5P0mTcm4cI2d4vxrFZ3VigYPLVF5XpuhqYxg
AyceRWu8YNylt3c+V57bk88P0b/ubVDSZX68pNyGz8/4dreIeBz4VHwb7vlo7wip
r/r2kNAvWD2baBdRLvI/QkDFyCRCxTrxw94mr9ym8wIDAQABoEIwQAYJKoZIhvcN
AQkOMTMwMTAJBgNVHRMEAjAAMA4GA1UdDwEB/wQEAwIBBjAUBgNVHREEDTALhgl1
bmRlZmluZWQwDQYJKoZIhvcNAQELBQADgYEAaxUpRJw0MYPux2nM8X4msb5gFNpm
d5xreHthZgt1MMZmZ7TTND+SEApqW60YsJfAb3ylO+h02+vEKFacULxbSxn6CawT
2d4top4ctzj1FDDvooz81Nx5KfJIQTEcnWABURtSK3Yn8sy+P733ND84RxjqcoJU
KqvJjHIlxgguVkA=
-----END CERTIFICATE REQUEST-----
