Certificate:
    Data:
        Version: 3 (0x2)
        Serial Number: 4100 (0x1004)
        Signature Algorithm: sha256WithRSAEncryption
        Issuer: C=FR, ST=IDF, L=Paris, O=Local NODE-OPCUA Certificate Authority, CN=NodeOPCUA-CA
        Validity
            Not Before: May  1 13:27:44 2017 GMT
            Not After : May  1 13:27:44 2018 GMT
        Subject: C=FR, O=NodeOPCUA, CN=NodeOPCUA
        Subject Public Key Info:
            Public Key Algorithm: rsaEncryption
            RSA Public Key: (1024 bit)
                Modulus (1024 bit):
                    00:bd:04:06:71:34:b1:11:e5:1c:30:49:98:43:f4:
                    a8:6c:65:a6:35:0e:e2:f2:e4:fd:26:4d:c9:b8:70:
                    8d:9d:e2:fc:6b:15:9d:d5:8a:06:0f:2d:51:79:5e:
                    9b:a1:a9:8c:60:03:27:1e:45:6b:bc:60:dc:a5:b7:
                    77:3e:57:9e:db:93:cf:0f:d1:bf:ee:6d:50:d2:65:
                    7e:bc:a4:dc:86:cf:cf:f8:76:b7:88:78:1c:f8:54:
                    7c:1b:ee:f9:68:ef:08:a9:af:fa:f6:90:d0:2f:58:
                    3d:9b:68:17:51:2e:f2:3f:42:40:c5:c8:24:42:c5:
                    3a:f1:c3:de:26:af:dc:a6:f3
                Exponent: 65537 (0x10001)
        X509v3 extensions:
            X509v3 Basic Constraints: critical
                CA:FALSE
            X509v3 Subject Key Identifier: 
                4A:E3:85:C7:DF:2D:DF:65:96:03:77:20:CA:A7:C0:94:01:35:34:B6
            X509v3 Authority Key Identifier: 
                keyid:8A:FF:87:2D:B2:76:79:F7:6F:3C:79:77:5B:49:6C:9C:49:03:E6:A4
                DirName:/C=FR/ST=IDF/L=Paris/O=Local NODE-OPCUA Certificate Authority/CN=NodeOPCUA-CA
                serial:D6:7C:D6:E6:02:18:3C:DA

            X509v3 Subject Alternative Name: 
                URI:urn:localhost:NodeOPCUA-Server, DNS:localhost, DNS:localhost
            Netscape Comment: 
                OpenSSL Generated Certificate
            X509v3 Key Usage: critical
                Digital Signature, Non Repudiation, Key Encipherment, Data Encipherment, Key Agreement, Certificate Sign
            X509v3 Extended Key Usage: critical
                TLS Web Server Authentication, TLS Web Client Authentication
    Signature Algorithm: sha256WithRSAEncryption
        0f:bb:cb:b8:8a:26:c8:23:51:34:da:d9:97:21:5f:e2:4d:21:
        42:d4:6e:2d:08:3e:54:d1:fe:45:6f:92:71:5e:94:5e:6f:b3:
        c7:c8:55:dc:8f:23:2a:18:ab:dc:df:a6:97:d3:4a:8f:52:3c:
        38:7e:be:49:88:5a:b2:35:69:aa:88:52:cb:7e:e0:7e:13:c3:
        0f:a7:14:05:8d:51:ac:eb:91:d8:a7:e7:c5:18:e2:c8:01:e7:
        c9:26:b5:00:99:88:81:74:ec:43:52:22:19:f4:b6:ef:ce:d5:
        e5:5f:00:f2:4d:75:73:58:e8:de:96:1c:41:39:ae:8f:7c:14:
        27:21:2b:26:c1:47:af:42:e8:82:0d:45:b9:2f:58:fb:28:2b:
        50:12:ac:00:64:d6:9b:85:11:c6:4c:e8:a7:28:7d:f1:62:98:
        2d:21:71:23:44:c4:d4:29:5e:ce:6d:43:56:d0:a7:2c:02:3f:
        24:c2:dc:99:d8:64:15:d9:e2:0c:67:8a:3c:27:75:89:a9:9d:
        2e:9a:4b:73:8f:66:f7:20:4c:b1:b8:04:2f:0a:d9:37:6d:08:
        fb:ad:d8:dc:b9:f8:00:d7:34:46:c9:9a:58:a1:0a:28:0d:51:
        bb:b4:dc:86:41:63:38:22:ac:cd:31:a5:c2:92:ee:79:9e:06:
        3c:2c:dc:06
-----BEGIN CERTIFICATE-----
MIIEHDCCAwSgAwIBAgICEAQwDQYJKoZIhvcNAQELBQAwczELMAkGA1UEBhMCRlIx
DDAKBgNVBAgTA0lERjEOMAwGA1UEBxMFUGFyaXMxLzAtBgNVBAoTJkxvY2FsIE5P
REUtT1BDVUEgQ2VydGlmaWNhdGUgQXV0aG9yaXR5MRUwEwYDVQQDEwxOb2RlT1BD
VUEtQ0EwHhcNMTcwNTAxMTMyNzQ0WhcNMTgwNTAxMTMyNzQ0WjA1MQswCQYDVQQG
EwJGUjESMBAGA1UECgwJTm9kZU9QQ1VBMRIwEAYDVQQDDAlOb2RlT1BDVUEwgZ8w
DQYJKoZIhvcNAQEBBQADgY0AMIGJAoGBAL0EBnE0sRHlHDBJmEP0qGxlpjUO4vLk
/SZNybhwjZ3i/GsVndWKBg8tUXlem6GpjGADJx5Fa7xg3KW3dz5XntuTzw/Rv+5t
UNJlfryk3IbPz/h2t4h4HPhUfBvu+WjvCKmv+vaQ0C9YPZtoF1Eu8j9CQMXIJELF
OvHD3iav3KbzAgMBAAGjggF6MIIBdjAMBgNVHRMBAf8EAjAAMB0GA1UdDgQWBBRK
44XH3y3fZZYDdyDKp8CUATU0tjCBpQYDVR0jBIGdMIGagBSK/4ctsnZ59288eXdb
SWycSQPmpKF3pHUwczELMAkGA1UEBhMCRlIxDDAKBgNVBAgTA0lERjEOMAwGA1UE
BxMFUGFyaXMxLzAtBgNVBAoTJkxvY2FsIE5PREUtT1BDVUEgQ2VydGlmaWNhdGUg
QXV0aG9yaXR5MRUwEwYDVQQDEwxOb2RlT1BDVUEtQ0GCCQDWfNbmAhg82jA/BgNV
HREEODA2hh51cm46bG9jYWxob3N0Ok5vZGVPUENVQS1TZXJ2ZXKCCWxvY2FsaG9z
dIIJbG9jYWxob3N0MCwGCWCGSAGG+EIBDQQfFh1PcGVuU1NMIEdlbmVyYXRlZCBD
ZXJ0aWZpY2F0ZTAOBgNVHQ8BAf8EBAMCAvwwIAYDVR0lAQH/BBYwFAYIKwYBBQUH
AwEGCCsGAQUFBwMCMA0GCSqGSIb3DQEBCwUAA4IBAQAPu8u4iibII1E02tmXIV/i
TSFC1G4tCD5U0f5Fb5JxXpReb7PHyFXcjyMqGKvc36aX00qPUjw4fr5JiFqyNWmq
iFLLfuB+E8MPpxQFjVGs65HYp+fFGOLIAefJJrUAmYiBdOxDUiIZ9LbvztXlXwDy
TXVzWOjelhxBOa6PfBQnISsmwUevQuiCDUW5L1j7KCtQEqwAZNabhRHGTOinKH3x
YpgtIXEjRMTUKV7ObUNW0KcsAj8kwtyZ2GQV2eIMZ4o8J3WJqZ0umktzj2b3IEyx
uAQvCtk3bQj7rdjcufgA1zRGyZpYoQooDVG7tNyGQWM4IqzNMaXCku55ngY8LNwG
-----END CERTIFICATE-----
Certificate:
    Data:
        Version: 1 (0x0)
        Serial Number:
            d6:7c:d6:e6:02:18:3c:da
        Signature Algorithm: itu-t
        Issuer: C=FR, ST=IDF, L=Paris, O=Local NODE-OPCUA Certificate Authority, CN=NodeOPCUA-CA
        Validity
            Not Before: May  2 13:27:45 2017 GMT
            Not After : Apr 30 13:27:45 2027 GMT
        Subject: C=FR, ST=IDF, L=Paris, O=Local NODE-OPCUA Certificate Authority, CN=NodeOPCUA-CA
        Subject Public Key Info:
            Public Key Algorithm: rsaEncryption
            RSA Public Key: (2048 bit)
                Modulus (2048 bit):
                    00:cf:64:b2:28:0f:3c:d7:88:38:91:a3:76:2f:ba:
                    7b:98:76:46:4b:c3:a0:8d:72:fa:7b:f1:33:fd:2b:
                    9f:bc:ae:2d:61:ae:6a:3c:24:03:3b:bd:22:52:70:
                    2c:e8:a3:59:fc:6e:ed:8f:f1:db:b3:7b:c0:fe:8e:
                    18:56:db:55:ee:b5:ce:e1:ff:7d:1b:3f:ca:b3:9a:
                    b6:45:2c:2d:06:44:04:d2:92:0a:c9:f7:3a:79:72:
                    50:3d:ca:2e:9c:d1:6d:74:2a:54:e0:db:1f:c1:d9:
                    ed:ca:55:bb:c9:3c:5d:2e:bb:2f:c3:1c:94:6e:b4:
                    bf:85:d2:f8:77:ed:01:63:62:e4:d5:88:44:62:51:
                    9d:7b:7f:bc:25:cc:7d:42:3f:e8:d4:8b:b8:ad:4e:
                    60:47:47:d1:61:f6:cb:56:b9:b1:5b:8d:26:1b:c4:
                    cd:fb:20:bb:af:3f:6e:ca:3d:65:23:99:dd:1e:0c:
                    73:43:92:dc:4c:61:4b:fa:c6:25:db:47:54:e8:6b:
                    5b:72:e9:74:5c:dd:a4:47:00:98:49:37:59:6f:07:
                    2b:56:a9:a2:9b:23:70:16:7a:87:dc:cc:ac:6b:f8:
                    11:49:b3:52:c3:11:4f:2a:ea:ef:ff:35:42:28:e5:
                    2c:2a:f0:2e:70:1b:73:64:b1:12:f8:d9:65:0b:06:
                    c9:b9
                Exponent: 65537 (0x10001)
    Signature Algorithm: itu-t
-----BEGIN CERTIFICATE-----
MIIE3TCCA8WgAwIBAgIJANZ81uYCGDzaMA0GCSqGSIb3DQEBCwUAMHMxCzAJBgNV
BAYTAkZSMQwwCgYDVQQIEwNJREYxDjAMBgNVBAcTBVBhcmlzMS8wLQYDVQQKEyZM
b2NhbCBOT0RFLU9QQ1VBIENlcnRpZmljYXRlIEF1dGhvcml0eTEVMBMGA1UEAxMM
Tm9kZU9QQ1VBLUNBMB4XDTE3MDUwMjEzMjc0NVoXDTI3MDQzMDEzMjc0NVowczEL
MAkGA1UEBhMCRlIxDDAKBgNVBAgTA0lERjEOMAwGA1UEBxMFUGFyaXMxLzAtBgNV
BAoTJkxvY2FsIE5PREUtT1BDVUEgQ2VydGlmaWNhdGUgQXV0aG9yaXR5MRUwEwYD
VQQDEwxOb2RlT1BDVUEtQ0EwggEiMA0GCSqGSIb3DQEBAQUAA4IBDwAwggEKAoIB
AQDPZLIoDzzXiDiRo3YvunuYdkZLw6CNcvp78TP9K5+8ri1hrmo8JAM7vSJScCzo
o1n8bu2P8duze8D+jhhW21Xutc7h/30bP8qzmrZFLC0GRATSkgrJ9zp5clA9yi6c
0W10KlTg2x/B2e3KVbvJPF0uuy/DHJRutL+F0vh37QFjYuTViERiUZ17f7wlzH1C
P+jUi7itTmBHR9Fh9stWubFbjSYbxM37ILuvP27KPWUjmd0eDHNDktxMYUv6xiXb
R1Toa1ty6XRc3aRHAJhJN1lvBytWqaKbI3AWeofczKxr+BFJs1LDEU8q6u//NUIo
5Swq8C5wG3NksRL42WULBsm5AgMBAAGjggFyMIIBbjAdBgNVHQ4EFgQUiv+HLbJ2
efdvPHl3W0lsnEkD5qQwgaUGA1UdIwSBnTCBmoAUiv+HLbJ2efdvPHl3W0lsnEkD
5qShd6R1MHMxCzAJBgNVBAYTAkZSMQwwCgYDVQQIEwNJREYxDjAMBgNVBAcTBVBh
cmlzMS8wLQYDVQQKEyZMb2NhbCBOT0RFLU9QQ1VBIENlcnRpZmljYXRlIEF1dGhv
cml0eTEVMBMGA1UEAxMMTm9kZU9QQ1VBLUNBggkA1nzW5gIYPNowDAYDVR0TBAUw
AwEB/zAOBgNVHQ8BAf8EBAMCAQYwVwYJYIZIAYb4QgENBEoWSENBIENlcnRpZmlj
YXRlIGdlbmVyYXRlZCBieSBOb2RlLU9QQ1VBIENlcnRpZmljYXRlIHV0aWxpdHkg
dXNpbmcgb3BlbnNzbDAuBgNVHR8EJzAlMCOgIaAfhh1odHRwOi8vbG9jYWxob3N0
Ojg5MDAvY3JsLnBlbTANBgkqhkiG9w0BAQsFAAOCAQEAhOV1H8KMzSfzS/usRVsU
/i1/kuqLapXBccAA67fGa2TsuOMXglXy2gT0mg4bInnYnFI/NIEiri/sRTAe+WK1
36BY09gqGJKX8vJpRkIJ6OLxm6DI30+LK7wOdxyaqlSFUfKUzCbubTclpE0m/Lsi
K/TG/X3Tvlc56WKiwmY5uMHLqyLZRDn9Z+Q9wr+trsnRv9DuzDjQec3EXsAhQWZj
dl2xmPjNddnsSAxcKzO4JleebQylZUR3fJGkSRPE9/ODiUJ++Smy8nU5+fIVh4yw
lpvDmBnoInasqWogjL6E2sv/4EBMakTjiBuYC/NA+vKlr+PBO5RMZWppOJwYcfDn
aQ==
-----END CERTIFICATE-----
