Certificate:
    Data:
        Version: 3 (0x2)
        Serial Number: 4102 (0x1006)
        Signature Algorithm: sha256WithRSAEncryption
        Issuer: C=FR, ST=IDF, L=Paris, O=Local NODE-OPCUA Certificate Authority, CN=NodeOPCUA-CA
        Validity
            Not Before: May  1 13:27:44 2017 GMT
            Not After : May  1 13:27:44 2018 GMT
        Subject: C=FR, O=NodeOPCUA, CN=NodeOPCUA
        Subject Public Key Info:
            Public Key Algorithm: rsaEncryption
            RSA Public Key: (2048 bit)
                Modulus (2048 bit):
                    00:a9:89:93:a4:b2:3d:22:78:8e:64:18:33:a2:ef:
                    f5:ed:be:83:66:da:df:ab:72:d4:bf:25:a7:7f:e7:
                    bd:31:2d:2b:9f:a0:d3:f5:59:6c:0e:ca:39:a3:45:
                    bf:f0:dc:f4:de:49:a3:09:94:7a:64:60:be:cf:2d:
                    53:d8:0b:e0:eb:19:58:78:eb:92:62:7a:59:bd:a1:
                    3a:73:da:8c:ff:86:ce:cc:98:d0:d5:6c:b8:e8:51:
                    3e:b6:fa:0b:d0:62:fa:06:28:a2:ac:8a:de:43:70:
                    a0:a6:42:04:7e:79:a5:a2:4a:4c:6d:8f:63:e3:23:
                    60:b5:4f:9c:60:b4:53:b1:e8:23:7f:cd:bb:d3:0a:
                    4e:d0:d2:42:0e:ce:ee:ff:78:89:96:56:63:9e:e9:
                    81:40:19:53:57:c0:19:c1:4a:e6:2e:c9:17:88:c7:
                    d8:ac:9f:97:c6:f2:b3:64:35:05:ea:6a:95:27:bc:
                    3c:9c:88:d3:fc:e0:ab:f6:73:77:72:1e:33:6b:31:
                    fd:14:40:1c:91:0b:f2:7c:fd:74:ea:06:c9:c7:4b:
                    6c:77:84:c1:b3:fc:2f:78:26:55:2b:f9:5a:4e:f6:
                    fe:d0:b2:9a:c5:a9:1c:b6:6d:c5:53:5a:b7:03:1a:
                    28:c3:81:6b:3c:e9:61:6f:35:44:25:4f:42:47:2f:
                    d1:d5
                Exponent: 65537 (0x10001)
        X509v3 extensions:
            X509v3 Basic Constraints: critical
                CA:FALSE
            X509v3 Subject Key Identifier: 
                89:55:CE:40:C6:F5:D6:7D:20:B3:E2:C5:55:4E:57:A2:7C:B7:82:75
            X509v3 Authority Key Identifier: 
                keyid:8A:FF:87:2D:B2:76:79:F7:6F:3C:79:77:5B:49:6C:9C:49:03:E6:A4
                DirName:/C=FR/ST=IDF/L=Paris/O=Local NODE-OPCUA Certificate Authority/CN=NodeOPCUA-CA
                serial:D6:7C:D6:E6:02:18:3C:DA

            X509v3 Subject Alternative Name: 
                URI:urn:localhost:NodeOPCUA-Server, DNS:localhost, DNS:localhost
            Netscape Comment: 
                OpenSSL Generated Certificate
            X509v3 Key Usage: critical
                Digital Signature, Non Repudiation, Key Encipherment, Data Encipherment, Key Agreement, Certificate Sign
            X509v3 Extended Key Usage: critical
                TLS Web Server Authentication, TLS Web Client Authentication
    Signature Algorithm: sha256WithRSAEncryption
        82:02:a1:2b:94:16:ec:89:d2:1b:3f:f2:a4:c7:e4:02:c5:71:
        4c:15:46:57:0e:cc:81:51:d1:f2:94:67:a1:b5:73:ab:33:80:
        48:c1:67:53:f9:e8:a6:c0:59:2e:0e:de:3d:93:60:09:ed:30:
        b8:14:52:e6:db:e4:88:70:e2:ea:49:3a:3e:45:db:a2:8f:48:
        04:43:ed:e7:e0:94:1b:9f:27:0f:aa:45:04:0c:19:72:63:81:
        2b:fe:4e:55:13:6c:a1:aa:7b:ca:53:be:29:49:67:9c:c4:07:
        95:1d:7f:f0:2a:22:72:69:a4:33:1d:39:56:a9:4d:5f:27:68:
        ac:fd:12:89:fa:c3:7d:09:21:b7:48:53:07:42:13:53:25:aa:
        b5:b9:48:4d:26:c2:bc:d6:b8:62:91:fc:9c:ca:4b:0d:99:fe:
        8a:25:80:e3:26:37:b6:ee:b5:0b:ca:22:01:90:31:e1:da:e3:
        bb:1c:6f:e2:d8:01:0a:1b:1a:95:6f:26:19:0c:96:65:77:c9:
        4e:74:16:30:b1:92:b2:8a:5c:95:2c:ba:2a:29:2d:63:be:80:
        40:b0:9e:55:41:3a:ba:63:df:c9:67:66:20:c5:4d:a3:4f:a5:
        5e:74:d2:fe:4a:12:4d:35:e4:fe:63:3c:2e:a0:31:5a:3e:56:
        31:4d:6f:d8
-----BEGIN CERTIFICATE-----
MIIEoDCCA4igAwIBAgICEAYwDQYJKoZIhvcNAQELBQAwczELMAkGA1UEBhMCRlIx
DDAKBgNVBAgTA0lERjEOMAwGA1UEBxMFUGFyaXMxLzAtBgNVBAoTJkxvY2FsIE5P
REUtT1BDVUEgQ2VydGlmaWNhdGUgQXV0aG9yaXR5MRUwEwYDVQQDEwxOb2RlT1BD
VUEtQ0EwHhcNMTcwNTAxMTMyNzQ0WhcNMTgwNTAxMTMyNzQ0WjA1MQswCQYDVQQG
EwJGUjESMBAGA1UECgwJTm9kZU9QQ1VBMRIwEAYDVQQDDAlOb2RlT1BDVUEwggEi
MA0GCSqGSIb3DQEBAQUAA4IBDwAwggEKAoIBAQCpiZOksj0ieI5kGDOi7/XtvoNm
2t+rctS/Jad/570xLSufoNP1WWwOyjmjRb/w3PTeSaMJlHpkYL7PLVPYC+DrGVh4
65Jielm9oTpz2oz/hs7MmNDVbLjoUT62+gvQYvoGKKKsit5DcKCmQgR+eaWiSkxt
j2PjI2C1T5xgtFOx6CN/zbvTCk7Q0kIOzu7/eImWVmOe6YFAGVNXwBnBSuYuyReI
x9isn5fG8rNkNQXqapUnvDyciNP84Kv2c3dyHjNrMf0UQByRC/J8/XTqBsnHS2x3
hMGz/C94JlUr+VpO9v7QsprFqRy2bcVTWrcDGijDgWs86WFvNUQlT0JHL9HVAgMB
AAGjggF6MIIBdjAMBgNVHRMBAf8EAjAAMB0GA1UdDgQWBBSJVc5AxvXWfSCz4sVV
TleifLeCdTCBpQYDVR0jBIGdMIGagBSK/4ctsnZ59288eXdbSWycSQPmpKF3pHUw
czELMAkGA1UEBhMCRlIxDDAKBgNVBAgTA0lERjEOMAwGA1UEBxMFUGFyaXMxLzAt
BgNVBAoTJkxvY2FsIE5PREUtT1BDVUEgQ2VydGlmaWNhdGUgQXV0aG9yaXR5MRUw
EwYDVQQDEwxOb2RlT1BDVUEtQ0GCCQDWfNbmAhg82jA/BgNVHREEODA2hh51cm46
bG9jYWxob3N0Ok5vZGVPUENVQS1TZXJ2ZXKCCWxvY2FsaG9zdIIJbG9jYWxob3N0
MCwGCWCGSAGG+EIBDQQfFh1PcGVuU1NMIEdlbmVyYXRlZCBDZXJ0aWZpY2F0ZTAO
BgNVHQ8BAf8EBAMCAvwwIAYDVR0lAQH/BBYwFAYIKwYBBQUHAwEGCCsGAQUFBwMC
MA0GCSqGSIb3DQEBCwUAA4IBAQCCAqErlBbsidIbP/Kkx+QCxXFMFUZXDsyBUdHy
lGehtXOrM4BIwWdT+eimwFkuDt49k2AJ7TC4FFLm2+SIcOLqSTo+Rduij0gEQ+3n
4JQbnycPqkUEDBlyY4Er/k5VE2yhqnvKU74pSWecxAeVHX/wKiJyaaQzHTlWqU1f
J2is/RKJ+sN9CSG3SFMHQhNTJaq1uUhNJsK81rhikfycyksNmf6KJYDjJje27rUL
yiIBkDHh2uO7HG/i2AEKGxqVbyYZDJZld8lOdBYwsZKyilyVLLoqKS1jvoBAsJ5V
QTq6Y9/JZ2YgxU2jT6VedNL+ShJNNeT+YzwuoDFaPlYxTW/Y
-----END CERTIFICATE-----
Certificate:
    Data:
        Version: 1 (0x0)
        Serial Number:
            d6:7c:d6:e6:02:18:3c:da
        Signature Algorithm: itu-t
        Issuer: C=FR, ST=IDF, L=Paris, O=Local NODE-OPCUA Certificate Authority, CN=NodeOPCUA-CA
        Validity
            Not Before: May  2 13:27:45 2017 GMT
            Not After : Apr 30 13:27:45 2027 GMT
        Subject: C=FR, ST=IDF, L=Paris, O=Local NODE-OPCUA Certificate Authority, CN=NodeOPCUA-CA
        Subject Public Key Info:
            Public Key Algorithm: rsaEncryption
            RSA Public Key: (2048 bit)
                Modulus (2048 bit):
                    00:cf:64:b2:28:0f:3c:d7:88:38:91:a3:76:2f:ba:
                    7b:98:76:46:4b:c3:a0:8d:72:fa:7b:f1:33:fd:2b:
                    9f:bc:ae:2d:61:ae:6a:3c:24:03:3b:bd:22:52:70:
                    2c:e8:a3:59:fc:6e:ed:8f:f1:db:b3:7b:c0:fe:8e:
                    18:56:db:55:ee:b5:ce:e1:ff:7d:1b:3f:ca:b3:9a:
                    b6:45:2c:2d:06:44:04:d2:92:0a:c9:f7:3a:79:72:
                    50:3d:ca:2e:9c:d1:6d:74:2a:54:e0:db:1f:c1:d9:
                    ed:ca:55:bb:c9:3c:5d:2e:bb:2f:c3:1c:94:6e:b4:
                    bf:85:d2:f8:77:ed:01:63:62:e4:d5:88:44:62:51:
                    9d:7b:7f:bc:25:cc:7d:42:3f:e8:d4:8b:b8:ad:4e:
                    60:47:47:d1:61:f6:cb:56:b9:b1:5b:8d:26:1b:c4:
                    cd:fb:20:bb:af:3f:6e:ca:3d:65:23:99:dd:1e:0c:
                    73:43:92:dc:4c:61:4b:fa:c6:25:db:47:54:e8:6b:
                    5b:72:e9:74:5c:dd:a4:47:00:98:49:37:59:6f:07:
                    2b:56:a9:a2:9b:23:70:16:7a:87:dc:cc:ac:6b:f8:
                    11:49:b3:52:c3:11:4f:2a:ea:ef:ff:35:42:28:e5:
                    2c:2a:f0:2e:70:1b:73:64:b1:12:f8:d9:65:0b:06:
                    c9:b9
                Exponent: 65537 (0x10001)
    Signature Algorithm: itu-t
-----BEGIN CERTIFICATE-----
MIIE3TCCA8WgAwIBAgIJANZ81uYCGDzaMA0GCSqGSIb3DQEBCwUAMHMxCzAJBgNV
BAYTAkZSMQwwCgYDVQQIEwNJREYxDjAMBgNVBAcTBVBhcmlzMS8wLQYDVQQKEyZM
b2NhbCBOT0RFLU9QQ1VBIENlcnRpZmljYXRlIEF1dGhvcml0eTEVMBMGA1UEAxMM
Tm9kZU9QQ1VBLUNBMB4XDTE3MDUwMjEzMjc0NVoXDTI3MDQzMDEzMjc0NVowczEL
MAkGA1UEBhMCRlIxDDAKBgNVBAgTA0lERjEOMAwGA1UEBxMFUGFyaXMxLzAtBgNV
BAoTJkxvY2FsIE5PREUtT1BDVUEgQ2VydGlmaWNhdGUgQXV0aG9yaXR5MRUwEwYD
VQQDEwxOb2RlT1BDVUEtQ0EwggEiMA0GCSqGSIb3DQEBAQUAA4IBDwAwggEKAoIB
AQDPZLIoDzzXiDiRo3YvunuYdkZLw6CNcvp78TP9K5+8ri1hrmo8JAM7vSJScCzo
o1n8bu2P8duze8D+jhhW21Xutc7h/30bP8qzmrZFLC0GRATSkgrJ9zp5clA9yi6c
0W10KlTg2x/B2e3KVbvJPF0uuy/DHJRutL+F0vh37QFjYuTViERiUZ17f7wlzH1C
P+jUi7itTmBHR9Fh9stWubFbjSYbxM37ILuvP27KPWUjmd0eDHNDktxMYUv6xiXb
R1Toa1ty6XRc3aRHAJhJN1lvBytWqaKbI3AWeofczKxr+BFJs1LDEU8q6u//NUIo
5Swq8C5wG3NksRL42WULBsm5AgMBAAGjggFyMIIBbjAdBgNVHQ4EFgQUiv+HLbJ2
efdvPHl3W0lsnEkD5qQwgaUGA1UdIwSBnTCBmoAUiv+HLbJ2efdvPHl3W0lsnEkD
5qShd6R1MHMxCzAJBgNVBAYTAkZSMQwwCgYDVQQIEwNJREYxDjAMBgNVBAcTBVBh
cmlzMS8wLQYDVQQKEyZMb2NhbCBOT0RFLU9QQ1VBIENlcnRpZmljYXRlIEF1dGhv
cml0eTEVMBMGA1UEAxMMTm9kZU9QQ1VBLUNBggkA1nzW5gIYPNowDAYDVR0TBAUw
AwEB/zAOBgNVHQ8BAf8EBAMCAQYwVwYJYIZIAYb4QgENBEoWSENBIENlcnRpZmlj
YXRlIGdlbmVyYXRlZCBieSBOb2RlLU9QQ1VBIENlcnRpZmljYXRlIHV0aWxpdHkg
dXNpbmcgb3BlbnNzbDAuBgNVHR8EJzAlMCOgIaAfhh1odHRwOi8vbG9jYWxob3N0
Ojg5MDAvY3JsLnBlbTANBgkqhkiG9w0BAQsFAAOCAQEAhOV1H8KMzSfzS/usRVsU
/i1/kuqLapXBccAA67fGa2TsuOMXglXy2gT0mg4bInnYnFI/NIEiri/sRTAe+WK1
36BY09gqGJKX8vJpRkIJ6OLxm6DI30+LK7wOdxyaqlSFUfKUzCbubTclpE0m/Lsi
K/TG/X3Tvlc56WKiwmY5uMHLqyLZRDn9Z+Q9wr+trsnRv9DuzDjQec3EXsAhQWZj
dl2xmPjNddnsSAxcKzO4JleebQylZUR3fJGkSRPE9/ODiUJ++Smy8nU5+fIVh4yw
lpvDmBnoInasqWogjL6E2sv/4EBMakTjiBuYC/NA+vKlr+PBO5RMZWppOJwYcfDn
aQ==
-----END CERTIFICATE-----
