Certificate:
    Data:
        Version: 3 (0x2)
        Serial Number: 4100 (0x1004)
        Signature Algorithm: sha256WithRSAEncryption
        Issuer: C=FR, ST=IDF, L=Paris, O=Fake CA for Test, CN=NodeOPCUA
        Validity
            Not Before: Apr 11 09:10:35 2017 GMT
            Not After : Apr 11 09:10:35 2018 GMT
        Subject: O=NodeOPCUA, CN=NodeOPCUA
        Subject Public Key Info:
            Public Key Algorithm: rsaEncryption
            RSA Public Key: (1024 bit)
                Modulus (1024 bit):
                    00:e7:26:f9:0a:e4:5f:8c:f0:f0:22:74:12:71:35:
                    de:12:d7:91:c8:f5:27:56:db:50:e0:9a:74:75:dd:
                    4f:fe:35:84:40:c5:20:77:da:22:bf:3c:2c:29:ce:
                    9b:5c:fc:81:5b:a1:dc:f6:10:5b:a5:a9:a5:1e:ce:
                    26:d8:07:41:49:e3:e1:74:4f:da:d6:97:25:0c:9a:
                    11:3f:37:5e:5e:89:ae:c9:eb:67:84:ee:c7:7c:28:
                    3e:00:5e:bc:e3:0b:15:2e:86:fa:bc:78:e1:77:be:
                    97:5f:e4:ee:38:25:24:84:04:6a:f4:c4:d2:77:7a:
                    e9:6e:58:f9:6a:0f:4e:fa:af
                Exponent: 65537 (0x10001)
        X509v3 extensions:
            X509v3 Basic Constraints: critical
                CA:FALSE
            X509v3 Subject Key Identifier: 
                F6:15:B0:8A:D4:A8:8D:FB:D7:3A:40:64:F6:65:25:20:E8:03:1A:9B
            X509v3 Authority Key Identifier: 
                keyid:77:9B:44:5F:3A:C0:AD:26:EF:E1:9D:BA:B2:25:FC:90:0F:5D:59:77
                DirName:/C=FR/ST=IDF/L=Paris/O=Fake CA for Test/CN=NodeOPCUA
                serial:B9:27:C6:02:5B:D1:34:0B

            X509v3 Subject Alternative Name: 
                URI:urn:localhost:NodeOPCUA-Server, DNS:localhost, DNS:localhost
            Netscape Comment: 
                OpenSSL Generated Certificate
            X509v3 Key Usage: critical
                Digital Signature, Non Repudiation, Key Encipherment, Data Encipherment, Key Agreement, Certificate Sign
            X509v3 Extended Key Usage: critical
                TLS Web Server Authentication, TLS Web Client Authentication
    Signature Algorithm: sha256WithRSAEncryption
        0a:b9:da:bc:1e:b1:84:89:1a:92:06:99:b3:04:2a:86:1c:a1:
        55:31:58:3c:91:9c:24:42:07:09:10:a6:f0:74:e3:93:e0:97:
        bc:93:b0:33:72:54:1d:e4:cd:b2:d9:ff:8e:71:b0:92:1a:06:
        f8:17:9b:aa:2d:a4:5f:d7:04:ac:9e:a0:ba:e9:24:00:fc:8c:
        60:50:1a:6d:97:8d:60:e8:86:b8:b5:50:40:65:e6:21:6b:a7:
        10:75:68:c2:54:a6:1d:f4:eb:29:5f:3b:16:30:47:65:49:ca:
        cc:23:38:ca:88:bc:07:15:ef:3d:b6:39:2a:03:07:c7:12:dd:
        64:62:c4:01:dd:fa:6c:10:5c:23:df:15:67:52:90:15:9c:61:
        44:04:fd:9b:cb:2a:c2:8e:90:43:1b:ca:ee:35:6d:d9:2c:72:
        72:bc:7b:15:c7:de:6a:45:0a:79:86:fc:06:36:97:9e:3a:6d:
        5b:b8:4e:5c:6e:9f:d5:58:b8:36:f7:8d:d2:3a:48:ab:64:7e:
        bf:77:5c:10:64:59:0f:ce:04:38:ec:ac:13:0a:76:6a:d8:14:
        97:52:72:cc:93:ed:db:d4:dd:a8:da:46:6e:9a:2b:59:06:1d:
        d6:2e:a1:c3:ba:85:3f:2d:80:ba:ac:86:a1:6c:59:1c:c1:53:
        10:ee:60:28
-----BEGIN CERTIFICATE-----
MIID3TCCAsWgAwIBAgICEAQwDQYJKoZIhvcNAQELBQAwWjELMAkGA1UEBhMCRlIx
DDAKBgNVBAgTA0lERjEOMAwGA1UEBxMFUGFyaXMxGTAXBgNVBAoTEEZha2UgQ0Eg
Zm9yIFRlc3QxEjAQBgNVBAMTCU5vZGVPUENVQTAeFw0xNzA0MTEwOTEwMzVaFw0x
ODA0MTEwOTEwMzVaMCgxEjAQBgNVBAoTCU5vZGVPUENVQTESMBAGA1UEAxMJTm9k
ZU9QQ1VBMIGfMA0GCSqGSIb3DQEBAQUAA4GNADCBiQKBgQDnJvkK5F+M8PAidBJx
Nd4S15HI9SdW21DgmnR13U/+NYRAxSB32iK/PCwpzptc/IFbodz2EFulqaUezibY
B0FJ4+F0T9rWlyUMmhE/N15eia7J62eE7sd8KD4AXrzjCxUuhvq8eOF3vpdf5O44
JSSEBGr0xNJ3euluWPlqD076rwIDAQABo4IBYTCCAV0wDAYDVR0TAQH/BAIwADAd
BgNVHQ4EFgQU9hWwitSojfvXOkBk9mUlIOgDGpswgYwGA1UdIwSBhDCBgYAUd5tE
XzrArSbv4Z26siX8kA9dWXehXqRcMFoxCzAJBgNVBAYTAkZSMQwwCgYDVQQIEwNJ
REYxDjAMBgNVBAcTBVBhcmlzMRkwFwYDVQQKExBGYWtlIENBIGZvciBUZXN0MRIw
EAYDVQQDEwlOb2RlT1BDVUGCCQC5J8YCW9E0CzA/BgNVHREEODA2hh51cm46bG9j
YWxob3N0Ok5vZGVPUENVQS1TZXJ2ZXKCCWxvY2FsaG9zdIIJbG9jYWxob3N0MCwG
CWCGSAGG+EIBDQQfFh1PcGVuU1NMIEdlbmVyYXRlZCBDZXJ0aWZpY2F0ZTAOBgNV
HQ8BAf8EBAMCAvwwIAYDVR0lAQH/BBYwFAYIKwYBBQUHAwEGCCsGAQUFBwMCMA0G
CSqGSIb3DQEBCwUAA4IBAQAKudq8HrGEiRqSBpmzBCqGHKFVMVg8kZwkQgcJEKbw
dOOT4Je8k7AzclQd5M2y2f+OcbCSGgb4F5uqLaRf1wSsnqC66SQA/IxgUBptl41g
6Ia4tVBAZeYha6cQdWjCVKYd9OspXzsWMEdlScrMIzjKiLwHFe89tjkqAwfHEt1k
YsQB3fpsEFwj3xVnUpAVnGFEBP2byyrCjpBDG8ruNW3ZLHJyvHsVx95qRQp5hvwG
NpeeOm1buE5cbp/VWLg2943SOkirZH6/d1wQZFkPzgQ47KwTCnZq2BSXUnLMk+3b
1N2o2kZumitZBh3WLqHDuoU/LYC6rIahbFkcwVMQ7mAo
-----END CERTIFICATE-----
Certificate:
    Data:
        Version: 1 (0x0)
        Serial Number:
            b9:27:c6:02:5b:d1:34:0b
        Signature Algorithm: itu-t
        Issuer: C=FR, ST=IDF, L=Paris, O=Fake CA for Test, CN=NodeOPCUA
        Validity
            Not Before: Apr 12 09:10:36 2017 GMT
            Not After : Apr 10 09:10:36 2027 GMT
        Subject: C=FR, ST=IDF, L=Paris, O=Fake CA for Test, CN=NodeOPCUA
        Subject Public Key Info:
            Public Key Algorithm: rsaEncryption
            RSA Public Key: (2048 bit)
                Modulus (2048 bit):
                    00:d3:96:61:2c:1d:19:ec:52:8c:64:59:e0:89:75:
                    68:c1:7f:b4:37:ac:bc:55:29:1b:cc:d3:9e:77:03:
                    7e:66:0f:e0:ad:2e:97:d1:db:a3:cd:c9:cc:58:f6:
                    82:29:e7:3c:c2:5b:2e:57:30:4b:9e:d6:75:f2:01:
                    98:ec:ff:3c:ab:56:9e:8c:94:3f:b0:c5:34:3c:10:
                    a3:94:30:32:f1:a2:1a:7f:9b:20:1a:22:00:c7:62:
                    d4:30:41:b1:92:97:be:31:d3:12:d1:80:56:e5:60:
                    12:18:d2:48:27:73:db:8e:d4:e9:c4:b1:0a:c7:24:
                    31:4f:7a:44:f8:e8:88:30:d6:ab:77:e2:64:ba:a1:
                    83:07:a7:bf:be:a5:a3:c8:3b:af:e5:cb:81:05:9d:
                    cd:ae:98:5b:3d:23:8c:c4:0f:10:0c:55:ff:19:83:
                    45:ab:22:99:00:38:64:2b:62:8a:81:d5:1e:b8:c2:
                    c8:72:22:13:5c:df:75:90:62:c8:a4:8c:26:93:2b:
                    2b:8a:3f:59:b5:4d:8e:f9:81:ce:68:bb:72:34:43:
                    07:e9:33:02:d3:76:f5:a7:93:5c:ab:92:46:d7:73:
                    ce:f8:7e:af:91:37:34:68:2e:95:49:1a:6c:3d:ba:
                    4d:c5:c4:94:0c:9f:10:4b:d0:50:b2:5e:89:72:cd:
                    d2:cf
                Exponent: 65537 (0x10001)
    Signature Algorithm: itu-t
-----BEGIN CERTIFICATE-----
MIIEkjCCA3qgAwIBAgIJALknxgJb0TQLMA0GCSqGSIb3DQEBBQUAMFoxCzAJBgNV
BAYTAkZSMQwwCgYDVQQIEwNJREYxDjAMBgNVBAcTBVBhcmlzMRkwFwYDVQQKExBG
YWtlIENBIGZvciBUZXN0MRIwEAYDVQQDEwlOb2RlT1BDVUEwHhcNMTcwNDEyMDkx
MDM2WhcNMjcwNDEwMDkxMDM2WjBaMQswCQYDVQQGEwJGUjEMMAoGA1UECBMDSURG
MQ4wDAYDVQQHEwVQYXJpczEZMBcGA1UEChMQRmFrZSBDQSBmb3IgVGVzdDESMBAG
A1UEAxMJTm9kZU9QQ1VBMIIBIjANBgkqhkiG9w0BAQEFAAOCAQ8AMIIBCgKCAQEA
05ZhLB0Z7FKMZFngiXVowX+0N6y8VSkbzNOedwN+Zg/grS6X0dujzcnMWPaCKec8
wlsuVzBLntZ18gGY7P88q1aejJQ/sMU0PBCjlDAy8aIaf5sgGiIAx2LUMEGxkpe+
MdMS0YBW5WASGNJIJ3PbjtTpxLEKxyQxT3pE+OiIMNard+JkuqGDB6e/vqWjyDuv
5cuBBZ3NrphbPSOMxA8QDFX/GYNFqyKZADhkK2KKgdUeuMLIciITXN91kGLIpIwm
kysrij9ZtU2O+YHOaLtyNEMH6TMC03b1p5Ncq5JG13PO+H6vkTc0aC6VSRpsPbpN
xcSUDJ8QS9BQsl6Jcs3SzwIDAQABo4IBWTCCAVUwHQYDVR0OBBYEFHebRF86wK0m
7+GdurIl/JAPXVl3MIGMBgNVHSMEgYQwgYGAFHebRF86wK0m7+GdurIl/JAPXVl3
oV6kXDBaMQswCQYDVQQGEwJGUjEMMAoGA1UECBMDSURGMQ4wDAYDVQQHEwVQYXJp
czEZMBcGA1UEChMQRmFrZSBDQSBmb3IgVGVzdDESMBAGA1UEAxMJTm9kZU9QQ1VB
ggkAuSfGAlvRNAswDAYDVR0TBAUwAwEB/zAOBgNVHQ8BAf8EBAMCAQYwVwYJYIZI
AYb4QgENBEoWSENBIENlcnRpZmljYXRlIGdlbmVyYXRlZCBieSBOb2RlLU9QQ1VB
IENlcnRpZmljYXRlIHV0aWxpdHkgdXNpbmcgb3BlbnNzbDAuBgNVHR8EJzAlMCOg
IaAfhh1odHRwOi8vbG9jYWxob3N0Ojg5MDAvY3JsLnBlbTANBgkqhkiG9w0BAQUF
AAOCAQEAkvC4SR68ak9AD3ELw3fo+hDSnX8dl1Qns8ngKDHj/Nf0UfTLhjZpJsoU
WBeqIcge0+7YN4QWyYAnBgSZQDSWU7gIUY+GoH8TXKR8DCGRPX0FAFnHrTwpw8PW
myHB9MmVizdUJ6s262yb3CWMUsrysFJmEOPNOGsWrbAiYqRiidK/v6Tg71qc9aji
EcE2EMBNgGe66UnClI1eLOtEvbvjOMh2RUYtfpUUpGlBfKzs64PSmihFQQGBO6M3
A4v+2oFjU4GujQsFeVSHAVaoenwYj2LPYCChk156zIM/CvfSgl39QDlr/42ebAHg
p2jUGFzaF9SqiBvl4f0KjHeAzeDUfQ==
-----END CERTIFICATE-----
