Certificate:
    Data:
        Version: 3 (0x2)
        Serial Number: 4102 (0x1006)
        Signature Algorithm: sha256WithRSAEncryption
        Issuer: O=NodeOPCUA, CN=NodeOPCUA
        Validity
            Not Before: Apr 11 09:10:35 2017 GMT
            Not After : Apr 11 09:10:35 2018 GMT
        Subject: O=NodeOPCUA, CN=NodeOPCUA
        Subject Public Key Info:
            Public Key Algorithm: rsaEncryption
            RSA Public Key: (1024 bit)
                Modulus (1024 bit):
                    00:e7:26:f9:0a:e4:5f:8c:f0:f0:22:74:12:71:35:
                    de:12:d7:91:c8:f5:27:56:db:50:e0:9a:74:75:dd:
                    4f:fe:35:84:40:c5:20:77:da:22:bf:3c:2c:29:ce:
                    9b:5c:fc:81:5b:a1:dc:f6:10:5b:a5:a9:a5:1e:ce:
                    26:d8:07:41:49:e3:e1:74:4f:da:d6:97:25:0c:9a:
                    11:3f:37:5e:5e:89:ae:c9:eb:67:84:ee:c7:7c:28:
                    3e:00:5e:bc:e3:0b:15:2e:86:fa:bc:78:e1:77:be:
                    97:5f:e4:ee:38:25:24:84:04:6a:f4:c4:d2:77:7a:
                    e9:6e:58:f9:6a:0f:4e:fa:af
                Exponent: 65537 (0x10001)
        X509v3 extensions:
            X509v3 Basic Constraints: critical
                CA:FALSE
            X509v3 Subject Key Identifier: 
                F6:15:B0:8A:D4:A8:8D:FB:D7:3A:40:64:F6:65:25:20:E8:03:1A:9B
            X509v3 Authority Key Identifier: 
                keyid:F6:15:B0:8A:D4:A8:8D:FB:D7:3A:40:64:F6:65:25:20:E8:03:1A:9B
                DirName:/O=NodeOPCUA/CN=NodeOPCUA
                serial:10:06

            X509v3 Subject Alternative Name: 
                URI:urn:localhost:NodeOPCUA-Server, DNS:localhost, DNS:localhost
            Netscape Comment: 
                OpenSSL Generated Certificate
            X509v3 Key Usage: critical
                Digital Signature, Non Repudiation, Key Encipherment, Data Encipherment, Key Agreement, Certificate Sign
            X509v3 Extended Key Usage: critical
                TLS Web Server Authentication, TLS Web Client Authentication
    Signature Algorithm: sha256WithRSAEncryption
        d3:24:0e:76:bf:4e:a4:55:8b:8a:ab:7a:e7:b9:0b:ec:33:8a:
        67:2b:f4:ad:be:00:03:f9:b2:c4:95:62:90:a3:9f:17:99:97:
        60:0d:12:5b:9b:72:b5:57:7e:9d:49:b3:b0:43:91:08:6b:1a:
        70:ac:99:6f:24:7f:18:07:a0:4c:bd:ef:ad:d1:ff:46:56:8b:
        3d:03:47:fb:16:76:9d:c1:e0:d6:f6:af:c3:84:e7:f0:c7:b2:
        8f:c2:9b:c5:dc:29:2a:c2:30:45:ab:f2:5b:dc:87:ce:ce:79:
        91:84:3e:c0:40:a6:63:12:69:f1:8b:6f:32:13:0b:53:e4:32:
        f3:60
-----BEGIN CERTIFICATE-----
MIIC7jCCAlegAwIBAgICEAYwDQYJKoZIhvcNAQELBQAwKDESMBAGA1UEChMJTm9k
ZU9QQ1VBMRIwEAYDVQQDEwlOb2RlT1BDVUEwHhcNMTcwNDExMDkxMDM1WhcNMTgw
NDExMDkxMDM1WjAoMRIwEAYDVQQKEwlOb2RlT1BDVUExEjAQBgNVBAMTCU5vZGVP
UENVQTCBnzANBgkqhkiG9w0BAQEFAAOBjQAwgYkCgYEA5yb5CuRfjPDwInQScTXe
EteRyPUnVttQ4Jp0dd1P/jWEQMUgd9oivzwsKc6bXPyBW6Hc9hBbpamlHs4m2AdB
SePhdE/a1pclDJoRPzdeXomuyetnhO7HfCg+AF684wsVLob6vHjhd76XX+TuOCUk
hARq9MTSd3rpblj5ag9O+q8CAwEAAaOCASUwggEhMAwGA1UdEwEB/wQCMAAwHQYD
VR0OBBYEFPYVsIrUqI371zpAZPZlJSDoAxqbMFEGA1UdIwRKMEiAFPYVsIrUqI37
1zpAZPZlJSDoAxqboSykKjAoMRIwEAYDVQQKEwlOb2RlT1BDVUExEjAQBgNVBAMT
CU5vZGVPUENVQYICEAYwPwYDVR0RBDgwNoYedXJuOmxvY2FsaG9zdDpOb2RlT1BD
VUEtU2VydmVygglsb2NhbGhvc3SCCWxvY2FsaG9zdDAsBglghkgBhvhCAQ0EHxYd
T3BlblNTTCBHZW5lcmF0ZWQgQ2VydGlmaWNhdGUwDgYDVR0PAQH/BAQDAgL8MCAG
A1UdJQEB/wQWMBQGCCsGAQUFBwMBBggrBgEFBQcDAjANBgkqhkiG9w0BAQsFAAOB
gQDTJA52v06kVYuKq3rnuQvsM4pnK/StvgAD+bLElWKQo58XmZdgDRJbm3K1V36d
SbOwQ5EIaxpwrJlvJH8YB6BMve+t0f9GVos9A0f7FnadweDW9q/DhOfwx7KPwpvF
3CkqwjBFq/Jb3IfOznmRhD7AQKZjEmnxi28yEwtT5DLzYA==
-----END CERTIFICATE-----
