Certificate:
    Data:
        Version: 3 (0x2)
        Serial Number: 4103 (0x1007)
        Signature Algorithm: sha256WithRSAEncryption
        Issuer: O=NodeOPCUA, CN=NodeOPCUA
        Validity
            Not Before: May  1 13:27:44 2017 GMT
            Not After : May  1 13:27:44 2018 GMT
        Subject: O=NodeOPCUA, CN=NodeOPCUA
        Subject Public Key Info:
            Public Key Algorithm: rsaEncryption
            RSA Public Key: (2048 bit)
                Modulus (2048 bit):
                    00:a9:89:93:a4:b2:3d:22:78:8e:64:18:33:a2:ef:
                    f5:ed:be:83:66:da:df:ab:72:d4:bf:25:a7:7f:e7:
                    bd:31:2d:2b:9f:a0:d3:f5:59:6c:0e:ca:39:a3:45:
                    bf:f0:dc:f4:de:49:a3:09:94:7a:64:60:be:cf:2d:
                    53:d8:0b:e0:eb:19:58:78:eb:92:62:7a:59:bd:a1:
                    3a:73:da:8c:ff:86:ce:cc:98:d0:d5:6c:b8:e8:51:
                    3e:b6:fa:0b:d0:62:fa:06:28:a2:ac:8a:de:43:70:
                    a0:a6:42:04:7e:79:a5:a2:4a:4c:6d:8f:63:e3:23:
                    60:b5:4f:9c:60:b4:53:b1:e8:23:7f:cd:bb:d3:0a:
                    4e:d0:d2:42:0e:ce:ee:ff:78:89:96:56:63:9e:e9:
                    81:40:19:53:57:c0:19:c1:4a:e6:2e:c9:17:88:c7:
                    d8:ac:9f:97:c6:f2:b3:64:35:05:ea:6a:95:27:bc:
                    3c:9c:88:d3:fc:e0:ab:f6:73:77:72:1e:33:6b:31:
                    fd:14:40:1c:91:0b:f2:7c:fd:74:ea:06:c9:c7:4b:
                    6c:77:84:c1:b3:fc:2f:78:26:55:2b:f9:5a:4e:f6:
                    fe:d0:b2:9a:c5:a9:1c:b6:6d:c5:53:5a:b7:03:1a:
                    28:c3:81:6b:3c:e9:61:6f:35:44:25:4f:42:47:2f:
                    d1:d5
                Exponent: 65537 (0x10001)
        X509v3 extensions:
            X509v3 Basic Constraints: critical
                CA:FALSE
            X509v3 Subject Key Identifier: 
                89:55:CE:40:C6:F5:D6:7D:20:B3:E2:C5:55:4E:57:A2:7C:B7:82:75
            X509v3 Authority Key Identifier: 
                keyid:89:55:CE:40:C6:F5:D6:7D:20:B3:E2:C5:55:4E:57:A2:7C:B7:82:75
                DirName:/O=NodeOPCUA/CN=NodeOPCUA
                serial:10:07

            X509v3 Subject Alternative Name: 
                URI:urn:localhost:NodeOPCUA-Server, DNS:localhost, DNS:localhost
            Netscape Comment: 
                OpenSSL Generated Certificate
            X509v3 Key Usage: critical
                Digital Signature, Non Repudiation, Key Encipherment, Data Encipherment, Key Agreement, Certificate Sign
            X509v3 Extended Key Usage: critical
                TLS Web Server Authentication, TLS Web Client Authentication
    Signature Algorithm: sha256WithRSAEncryption
        31:bc:59:29:81:aa:a2:d7:03:7c:d0:a4:17:ae:60:f0:96:40:
        b9:f7:8a:ab:7a:d7:75:44:1f:3d:fd:51:1e:00:1d:18:8b:f8:
        e5:23:ee:3f:66:73:74:18:78:a7:16:18:89:b4:9d:0b:6b:b2:
        e3:85:2a:53:21:70:0e:2f:60:d6:ea:e4:86:fb:5e:c8:b9:13:
        29:14:7d:ad:36:25:86:2a:d7:45:6d:74:a1:58:3f:36:15:5f:
        73:b5:f8:c5:d7:23:73:cd:2e:1f:d8:4c:02:09:0c:2d:48:9b:
        a7:3e:19:10:a8:00:90:4d:33:a1:4d:ba:0c:a0:d9:f5:b6:7a:
        19:78:cc:2b:4b:b7:4d:63:a2:25:b2:c4:36:d2:37:bb:fd:7a:
        5d:5b:af:21:fe:a4:b3:14:ba:c1:42:78:ce:d1:06:14:44:55:
        65:ee:ad:dd:9c:5e:fd:2d:59:d0:ee:6d:52:ef:ba:5c:af:54:
        26:ff:1b:69:42:0d:e0:3b:79:8a:f7:3b:44:44:cd:08:81:30:
        76:64:d2:28:db:53:24:5f:50:48:a5:22:90:70:f7:cf:77:93:
        56:2c:58:72:18:56:96:ce:4b:17:e9:d0:95:9f:8f:7c:cd:fb:
        02:7c:bb:0b:60:5f:0b:b8:66:cf:c2:87:e2:3d:ba:9e:70:84:
        b8:93:e0:0f
-----BEGIN CERTIFICATE-----
MIID8zCCAtugAwIBAgICEAcwDQYJKoZIhvcNAQELBQAwKDESMBAGA1UEChMJTm9k
ZU9QQ1VBMRIwEAYDVQQDEwlOb2RlT1BDVUEwHhcNMTcwNTAxMTMyNzQ0WhcNMTgw
NTAxMTMyNzQ0WjAoMRIwEAYDVQQKEwlOb2RlT1BDVUExEjAQBgNVBAMTCU5vZGVP
UENVQTCCASIwDQYJKoZIhvcNAQEBBQADggEPADCCAQoCggEBAKmJk6SyPSJ4jmQY
M6Lv9e2+g2ba36ty1L8lp3/nvTEtK5+g0/VZbA7KOaNFv/Dc9N5JowmUemRgvs8t
U9gL4OsZWHjrkmJ6Wb2hOnPajP+GzsyY0NVsuOhRPrb6C9Bi+gYooqyK3kNwoKZC
BH55paJKTG2PY+MjYLVPnGC0U7HoI3/Nu9MKTtDSQg7O7v94iZZWY57pgUAZU1fA
GcFK5i7JF4jH2Kyfl8bys2Q1BepqlSe8PJyI0/zgq/Zzd3IeM2sx/RRAHJEL8nz9
dOoGycdLbHeEwbP8L3gmVSv5Wk72/tCymsWpHLZtxVNatwMaKMOBazzpYW81RCVP
Qkcv0dUCAwEAAaOCASUwggEhMAwGA1UdEwEB/wQCMAAwHQYDVR0OBBYEFIlVzkDG
9dZ9ILPixVVOV6J8t4J1MFEGA1UdIwRKMEiAFIlVzkDG9dZ9ILPixVVOV6J8t4J1
oSykKjAoMRIwEAYDVQQKEwlOb2RlT1BDVUExEjAQBgNVBAMTCU5vZGVPUENVQYIC
EAcwPwYDVR0RBDgwNoYedXJuOmxvY2FsaG9zdDpOb2RlT1BDVUEtU2VydmVyggls
b2NhbGhvc3SCCWxvY2FsaG9zdDAsBglghkgBhvhCAQ0EHxYdT3BlblNTTCBHZW5l
cmF0ZWQgQ2VydGlmaWNhdGUwDgYDVR0PAQH/BAQDAgL8MCAGA1UdJQEB/wQWMBQG
CCsGAQUFBwMBBggrBgEFBQcDAjANBgkqhkiG9w0BAQsFAAOCAQEAMbxZKYGqotcD
fNCkF65g8JZAufeKq3rXdUQfPf1RHgAdGIv45SPuP2ZzdBh4pxYYibSdC2uy44Uq
UyFwDi9g1urkhvteyLkTKRR9rTYlhirXRW10oVg/NhVfc7X4xdcjc80uH9hMAgkM
LUibpz4ZEKgAkE0zoU26DKDZ9bZ6GXjMK0u3TWOiJbLENtI3u/16XVuvIf6ksxS6
wUJ4ztEGFERVZe6t3Zxe/S1Z0O5tUu+6XK9UJv8baUIN4Dt5ivc7RETNCIEwdmTS
KNtTJF9QSKUikHD3z3eTVixYchhWls5LF+nQlZ+PfM37Any7C2BfC7hmz8KH4j26
nnCEuJPgDw==
-----END CERTIFICATE-----
