Certificate:
    Data:
        Version: 3 (0x2)
        Serial Number: 4103 (0x1007)
        Signature Algorithm: sha256WithRSAEncryption
        Issuer: O=NodeOPCUA, CN=NodeOPCUA
        Validity
            Not Before: Apr 11 09:10:35 2017 GMT
            Not After : Apr 11 09:10:35 2018 GMT
        Subject: O=NodeOPCUA, CN=NodeOPCUA
        Subject Public Key Info:
            Public Key Algorithm: rsaEncryption
            RSA Public Key: (2048 bit)
                Modulus (2048 bit):
                    00:c6:5f:51:01:35:37:e2:0a:37:3e:a2:6e:31:be:
                    e2:16:bf:ab:03:7a:d2:c5:34:6c:65:88:a5:f3:1a:
                    e2:c2:0b:3e:bf:a0:96:2e:6d:48:c7:b3:36:a6:7a:
                    47:ab:a8:1c:ec:0a:73:a4:6b:59:61:d4:54:d9:0b:
                    58:b0:d7:2b:76:f8:6f:eb:67:15:bf:4f:10:b0:88:
                    53:80:24:b7:d7:ac:ae:70:18:02:81:af:a8:37:1d:
                    fd:10:40:76:0d:a0:02:8a:29:06:ae:02:b6:e9:55:
                    6d:c4:fe:a2:84:b9:72:02:20:64:ed:0a:53:1f:01:
                    6e:6d:65:94:89:e6:ed:9f:52:ed:9d:22:0a:d4:dc:
                    ef:55:28:8c:16:98:b6:68:20:f2:23:0a:cf:78:e7:
                    d4:4b:cb:57:88:93:37:20:7b:02:d4:02:79:4c:59:
                    0a:d9:06:40:31:a2:f3:f5:f7:40:0a:f7:1e:a4:16:
                    28:61:9e:39:0b:25:f9:d9:64:a1:fb:cf:0d:cb:69:
                    33:f1:4b:d7:01:31:4d:f5:f3:16:73:13:38:10:2d:
                    d7:e1:0f:5a:2b:f8:46:87:04:07:01:7f:43:8d:d1:
                    cb:70:43:43:b9:65:77:1c:80:d7:08:52:10:12:67:
                    a5:82:7a:0c:e2:f1:10:d5:48:7a:dd:bc:ae:87:37:
                    5c:6d
                Exponent: 65537 (0x10001)
        X509v3 extensions:
            X509v3 Basic Constraints: critical
                CA:FALSE
            X509v3 Subject Key Identifier: 
                94:06:37:CE:8A:FE:57:1F:97:CF:6C:79:B5:0C:9C:EB:57:AC:38:DA
            X509v3 Authority Key Identifier: 
                keyid:94:06:37:CE:8A:FE:57:1F:97:CF:6C:79:B5:0C:9C:EB:57:AC:38:DA
                DirName:/O=NodeOPCUA/CN=NodeOPCUA
                serial:10:07

            X509v3 Subject Alternative Name: 
                URI:urn:localhost:NodeOPCUA-Server, DNS:localhost, DNS:localhost
            Netscape Comment: 
                OpenSSL Generated Certificate
            X509v3 Key Usage: critical
                Digital Signature, Non Repudiation, Key Encipherment, Data Encipherment, Key Agreement, Certificate Sign
            X509v3 Extended Key Usage: critical
                TLS Web Server Authentication, TLS Web Client Authentication
    Signature Algorithm: sha256WithRSAEncryption
        33:bd:91:68:e9:bb:82:d8:58:88:b7:1f:d4:19:69:f5:b3:50:
        f8:60:a2:18:48:84:ac:92:17:d5:95:1c:15:b4:ce:22:43:33:
        62:4b:15:2d:bc:26:73:ff:57:9e:b8:f0:d1:4a:4b:f7:50:7c:
        56:db:5d:52:06:97:f6:aa:3d:0e:32:c8:71:73:57:a1:cc:c0:
        d4:41:86:27:de:c4:30:e3:a0:aa:f0:31:be:45:04:9c:14:af:
        0e:6f:d3:be:dc:d4:86:4d:00:b8:8e:89:7b:fa:b7:4b:4e:e8:
        29:2c:61:f6:74:17:78:5c:a9:4a:76:5f:97:9c:5f:c6:9d:45:
        c2:30:ea:73:77:88:5a:b3:2e:ea:08:1e:e0:9a:36:a2:33:23:
        c0:82:82:06:bc:21:91:c4:dd:53:48:7d:f1:e1:9e:1f:be:85:
        a2:12:47:8d:55:ba:21:bf:18:c6:90:61:cd:8f:24:ae:a7:4d:
        1a:66:41:71:02:17:4c:c3:c4:03:07:80:01:5a:be:c8:b6:e6:
        49:cc:48:44:cf:76:97:fe:cf:22:68:e1:47:fb:f7:08:75:03:
        29:a0:c2:37:e8:19:79:1d:d4:dd:c7:47:1d:54:34:1a:b8:9e:
        8d:f4:cf:c3:d5:5e:26:3e:0c:58:27:66:b2:1d:a3:22:3d:61:
        fd:29:80:a4
-----BEGIN CERTIFICATE-----
MIID8zCCAtugAwIBAgICEAcwDQYJKoZIhvcNAQELBQAwKDESMBAGA1UEChMJTm9k
ZU9QQ1VBMRIwEAYDVQQDEwlOb2RlT1BDVUEwHhcNMTcwNDExMDkxMDM1WhcNMTgw
NDExMDkxMDM1WjAoMRIwEAYDVQQKEwlOb2RlT1BDVUExEjAQBgNVBAMTCU5vZGVP
UENVQTCCASIwDQYJKoZIhvcNAQEBBQADggEPADCCAQoCggEBAMZfUQE1N+IKNz6i
bjG+4ha/qwN60sU0bGWIpfMa4sILPr+gli5tSMezNqZ6R6uoHOwKc6RrWWHUVNkL
WLDXK3b4b+tnFb9PELCIU4Akt9esrnAYAoGvqDcd/RBAdg2gAoopBq4CtulVbcT+
ooS5cgIgZO0KUx8Bbm1llInm7Z9S7Z0iCtTc71UojBaYtmgg8iMKz3jn1EvLV4iT
NyB7AtQCeUxZCtkGQDGi8/X3QAr3HqQWKGGeOQsl+dlkofvPDctpM/FL1wExTfXz
FnMTOBAt1+EPWiv4RocEBwF/Q43Ry3BDQ7lldxyA1whSEBJnpYJ6DOLxENVIet28
roc3XG0CAwEAAaOCASUwggEhMAwGA1UdEwEB/wQCMAAwHQYDVR0OBBYEFJQGN86K
/lcfl89sebUMnOtXrDjaMFEGA1UdIwRKMEiAFJQGN86K/lcfl89sebUMnOtXrDja
oSykKjAoMRIwEAYDVQQKEwlOb2RlT1BDVUExEjAQBgNVBAMTCU5vZGVPUENVQYIC
EAcwPwYDVR0RBDgwNoYedXJuOmxvY2FsaG9zdDpOb2RlT1BDVUEtU2VydmVyggls
b2NhbGhvc3SCCWxvY2FsaG9zdDAsBglghkgBhvhCAQ0EHxYdT3BlblNTTCBHZW5l
cmF0ZWQgQ2VydGlmaWNhdGUwDgYDVR0PAQH/BAQDAgL8MCAGA1UdJQEB/wQWMBQG
CCsGAQUFBwMBBggrBgEFBQcDAjANBgkqhkiG9w0BAQsFAAOCAQEAM72RaOm7gthY
iLcf1Blp9bNQ+GCiGEiErJIX1ZUcFbTOIkMzYksVLbwmc/9Xnrjw0UpL91B8Vttd
UgaX9qo9DjLIcXNXoczA1EGGJ97EMOOgqvAxvkUEnBSvDm/TvtzUhk0AuI6Je/q3
S07oKSxh9nQXeFypSnZfl5xfxp1FwjDqc3eIWrMu6gge4Jo2ojMjwIKCBrwhkcTd
U0h98eGeH76FohJHjVW6Ib8YxpBhzY8krqdNGmZBcQIXTMPEAweAAVq+yLbmScxI
RM92l/7PImjhR/v3CHUDKaDCN+gZeR3U3cdHHVQ0GriejfTPw9VeJj4MWCdmsh2j
Ij1h/SmApA==
-----END CERTIFICATE-----
