Certificate:
    Data:
        Version: 3 (0x2)
        Serial Number: 4101 (0x1005)
        Signature Algorithm: sha256WithRSAEncryption
        Issuer: C=FR, ST=IDF, L=Paris, O=Fake CA for Test, CN=NodeOPCUA
        Validity
            Not Before: Apr 11 09:10:35 2017 GMT
            Not After : Apr 11 09:10:35 2018 GMT
        Subject: O=NodeOPCUA, CN=NodeOPCUA
        Subject Public Key Info:
            Public Key Algorithm: rsaEncryption
            RSA Public Key: (2048 bit)
                Modulus (2048 bit):
                    00:c6:5f:51:01:35:37:e2:0a:37:3e:a2:6e:31:be:
                    e2:16:bf:ab:03:7a:d2:c5:34:6c:65:88:a5:f3:1a:
                    e2:c2:0b:3e:bf:a0:96:2e:6d:48:c7:b3:36:a6:7a:
                    47:ab:a8:1c:ec:0a:73:a4:6b:59:61:d4:54:d9:0b:
                    58:b0:d7:2b:76:f8:6f:eb:67:15:bf:4f:10:b0:88:
                    53:80:24:b7:d7:ac:ae:70:18:02:81:af:a8:37:1d:
                    fd:10:40:76:0d:a0:02:8a:29:06:ae:02:b6:e9:55:
                    6d:c4:fe:a2:84:b9:72:02:20:64:ed:0a:53:1f:01:
                    6e:6d:65:94:89:e6:ed:9f:52:ed:9d:22:0a:d4:dc:
                    ef:55:28:8c:16:98:b6:68:20:f2:23:0a:cf:78:e7:
                    d4:4b:cb:57:88:93:37:20:7b:02:d4:02:79:4c:59:
                    0a:d9:06:40:31:a2:f3:f5:f7:40:0a:f7:1e:a4:16:
                    28:61:9e:39:0b:25:f9:d9:64:a1:fb:cf:0d:cb:69:
                    33:f1:4b:d7:01:31:4d:f5:f3:16:73:13:38:10:2d:
                    d7:e1:0f:5a:2b:f8:46:87:04:07:01:7f:43:8d:d1:
                    cb:70:43:43:b9:65:77:1c:80:d7:08:52:10:12:67:
                    a5:82:7a:0c:e2:f1:10:d5:48:7a:dd:bc:ae:87:37:
                    5c:6d
                Exponent: 65537 (0x10001)
        X509v3 extensions:
            X509v3 Basic Constraints: critical
                CA:FALSE
            X509v3 Subject Key Identifier: 
                94:06:37:CE:8A:FE:57:1F:97:CF:6C:79:B5:0C:9C:EB:57:AC:38:DA
            X509v3 Authority Key Identifier: 
                keyid:77:9B:44:5F:3A:C0:AD:26:EF:E1:9D:BA:B2:25:FC:90:0F:5D:59:77
                DirName:/C=FR/ST=IDF/L=Paris/O=Fake CA for Test/CN=NodeOPCUA
                serial:B9:27:C6:02:5B:D1:34:0B

            X509v3 Subject Alternative Name: 
                URI:urn:localhost:NodeOPCUA-Server, DNS:localhost, DNS:localhost
            Netscape Comment: 
                OpenSSL Generated Certificate
            X509v3 Key Usage: critical
                Digital Signature, Non Repudiation, Key Encipherment, Data Encipherment, Key Agreement, Certificate Sign
            X509v3 Extended Key Usage: critical
                TLS Web Server Authentication, TLS Web Client Authentication
    Signature Algorithm: sha256WithRSAEncryption
        ba:e5:e3:7c:8c:9a:8b:c4:65:d7:19:e1:2d:6c:9a:c4:78:dc:
        06:06:ce:06:91:a8:07:af:6e:8c:00:65:06:09:da:b3:9c:34:
        d3:2e:55:e2:37:97:a3:d6:50:bd:87:f3:17:54:25:41:12:08:
        2f:b0:d0:bc:6f:95:5f:b9:98:3e:00:ba:71:d3:5d:fe:06:72:
        f1:cd:1e:f1:61:5f:77:bb:ff:62:19:fa:3b:05:1e:d0:7b:1e:
        15:3b:ff:8e:89:0f:99:52:3b:3f:6b:5b:9a:29:13:d5:5f:d8:
        75:97:a0:e4:16:3c:7b:5b:6a:30:af:af:90:4e:7c:e6:23:f0:
        07:28:19:6c:26:b4:4f:79:f6:16:23:f7:e5:04:95:5e:48:ae:
        23:c2:ef:b1:9f:0a:d5:d2:9f:b9:a7:93:c7:3e:a7:aa:fe:b7:
        f6:71:78:96:ec:e9:5a:9b:af:5b:50:f8:c7:3c:79:be:1d:45:
        dc:92:82:f8:cc:1e:15:26:21:74:ef:3f:e5:5c:40:f2:5e:12:
        4e:65:01:22:db:4f:0c:fc:9b:7e:5f:e4:e6:f2:c1:25:8e:73:
        b9:15:63:47:6d:6c:ad:cb:fb:de:bc:a1:3e:cc:f0:dc:c4:ff:
        28:dc:4d:e7:1b:93:61:0c:54:dc:47:81:fe:d2:15:34:99:8d:
        e4:62:9b:49
-----BEGIN CERTIFICATE-----
MIIEYTCCA0mgAwIBAgICEAUwDQYJKoZIhvcNAQELBQAwWjELMAkGA1UEBhMCRlIx
DDAKBgNVBAgTA0lERjEOMAwGA1UEBxMFUGFyaXMxGTAXBgNVBAoTEEZha2UgQ0Eg
Zm9yIFRlc3QxEjAQBgNVBAMTCU5vZGVPUENVQTAeFw0xNzA0MTEwOTEwMzVaFw0x
ODA0MTEwOTEwMzVaMCgxEjAQBgNVBAoTCU5vZGVPUENVQTESMBAGA1UEAxMJTm9k
ZU9QQ1VBMIIBIjANBgkqhkiG9w0BAQEFAAOCAQ8AMIIBCgKCAQEAxl9RATU34go3
PqJuMb7iFr+rA3rSxTRsZYil8xriwgs+v6CWLm1Ix7M2pnpHq6gc7ApzpGtZYdRU
2QtYsNcrdvhv62cVv08QsIhTgCS316yucBgCga+oNx39EEB2DaACiikGrgK26VVt
xP6ihLlyAiBk7QpTHwFubWWUiebtn1LtnSIK1NzvVSiMFpi2aCDyIwrPeOfUS8tX
iJM3IHsC1AJ5TFkK2QZAMaLz9fdACvcepBYoYZ45CyX52WSh+88Ny2kz8UvXATFN
9fMWcxM4EC3X4Q9aK/hGhwQHAX9DjdHLcENDuWV3HIDXCFIQEmelgnoM4vEQ1Uh6
3byuhzdcbQIDAQABo4IBYTCCAV0wDAYDVR0TAQH/BAIwADAdBgNVHQ4EFgQUlAY3
zor+Vx+Xz2x5tQyc61esONowgYwGA1UdIwSBhDCBgYAUd5tEXzrArSbv4Z26siX8
kA9dWXehXqRcMFoxCzAJBgNVBAYTAkZSMQwwCgYDVQQIEwNJREYxDjAMBgNVBAcT
BVBhcmlzMRkwFwYDVQQKExBGYWtlIENBIGZvciBUZXN0MRIwEAYDVQQDEwlOb2Rl
T1BDVUGCCQC5J8YCW9E0CzA/BgNVHREEODA2hh51cm46bG9jYWxob3N0Ok5vZGVP
UENVQS1TZXJ2ZXKCCWxvY2FsaG9zdIIJbG9jYWxob3N0MCwGCWCGSAGG+EIBDQQf
Fh1PcGVuU1NMIEdlbmVyYXRlZCBDZXJ0aWZpY2F0ZTAOBgNVHQ8BAf8EBAMCAvww
IAYDVR0lAQH/BBYwFAYIKwYBBQUHAwEGCCsGAQUFBwMCMA0GCSqGSIb3DQEBCwUA
A4IBAQC65eN8jJqLxGXXGeEtbJrEeNwGBs4GkagHr26MAGUGCdqznDTTLlXiN5ej
1lC9h/MXVCVBEggvsNC8b5VfuZg+ALpx013+BnLxzR7xYV93u/9iGfo7BR7Qex4V
O/+OiQ+ZUjs/a1uaKRPVX9h1l6DkFjx7W2owr6+QTnzmI/AHKBlsJrRPefYWI/fl
BJVeSK4jwu+xnwrV0p+5p5PHPqeq/rf2cXiW7Olam69bUPjHPHm+HUXckoL4zB4V
JiF07z/lXEDyXhJOZQEi208M/Jt+X+Tm8sEljnO5FWNHbWyty/vevKE+zPDcxP8o
3E3nG5NhDFTcR4H+0hU0mY3kYptJ
-----END CERTIFICATE-----
Certificate:
    Data:
        Version: 1 (0x0)
        Serial Number:
            b9:27:c6:02:5b:d1:34:0b
        Signature Algorithm: itu-t
        Issuer: C=FR, ST=IDF, L=Paris, O=Fake CA for Test, CN=NodeOPCUA
        Validity
            Not Before: Apr 12 09:10:36 2017 GMT
            Not After : Apr 10 09:10:36 2027 GMT
        Subject: C=FR, ST=IDF, L=Paris, O=Fake CA for Test, CN=NodeOPCUA
        Subject Public Key Info:
            Public Key Algorithm: rsaEncryption
            RSA Public Key: (2048 bit)
                Modulus (2048 bit):
                    00:d3:96:61:2c:1d:19:ec:52:8c:64:59:e0:89:75:
                    68:c1:7f:b4:37:ac:bc:55:29:1b:cc:d3:9e:77:03:
                    7e:66:0f:e0:ad:2e:97:d1:db:a3:cd:c9:cc:58:f6:
                    82:29:e7:3c:c2:5b:2e:57:30:4b:9e:d6:75:f2:01:
                    98:ec:ff:3c:ab:56:9e:8c:94:3f:b0:c5:34:3c:10:
                    a3:94:30:32:f1:a2:1a:7f:9b:20:1a:22:00:c7:62:
                    d4:30:41:b1:92:97:be:31:d3:12:d1:80:56:e5:60:
                    12:18:d2:48:27:73:db:8e:d4:e9:c4:b1:0a:c7:24:
                    31:4f:7a:44:f8:e8:88:30:d6:ab:77:e2:64:ba:a1:
                    83:07:a7:bf:be:a5:a3:c8:3b:af:e5:cb:81:05:9d:
                    cd:ae:98:5b:3d:23:8c:c4:0f:10:0c:55:ff:19:83:
                    45:ab:22:99:00:38:64:2b:62:8a:81:d5:1e:b8:c2:
                    c8:72:22:13:5c:df:75:90:62:c8:a4:8c:26:93:2b:
                    2b:8a:3f:59:b5:4d:8e:f9:81:ce:68:bb:72:34:43:
                    07:e9:33:02:d3:76:f5:a7:93:5c:ab:92:46:d7:73:
                    ce:f8:7e:af:91:37:34:68:2e:95:49:1a:6c:3d:ba:
                    4d:c5:c4:94:0c:9f:10:4b:d0:50:b2:5e:89:72:cd:
                    d2:cf
                Exponent: 65537 (0x10001)
    Signature Algorithm: itu-t
-----BEGIN CERTIFICATE-----
MIIEkjCCA3qgAwIBAgIJALknxgJb0TQLMA0GCSqGSIb3DQEBBQUAMFoxCzAJBgNV
BAYTAkZSMQwwCgYDVQQIEwNJREYxDjAMBgNVBAcTBVBhcmlzMRkwFwYDVQQKExBG
YWtlIENBIGZvciBUZXN0MRIwEAYDVQQDEwlOb2RlT1BDVUEwHhcNMTcwNDEyMDkx
MDM2WhcNMjcwNDEwMDkxMDM2WjBaMQswCQYDVQQGEwJGUjEMMAoGA1UECBMDSURG
MQ4wDAYDVQQHEwVQYXJpczEZMBcGA1UEChMQRmFrZSBDQSBmb3IgVGVzdDESMBAG
A1UEAxMJTm9kZU9QQ1VBMIIBIjANBgkqhkiG9w0BAQEFAAOCAQ8AMIIBCgKCAQEA
05ZhLB0Z7FKMZFngiXVowX+0N6y8VSkbzNOedwN+Zg/grS6X0dujzcnMWPaCKec8
wlsuVzBLntZ18gGY7P88q1aejJQ/sMU0PBCjlDAy8aIaf5sgGiIAx2LUMEGxkpe+
MdMS0YBW5WASGNJIJ3PbjtTpxLEKxyQxT3pE+OiIMNard+JkuqGDB6e/vqWjyDuv
5cuBBZ3NrphbPSOMxA8QDFX/GYNFqyKZADhkK2KKgdUeuMLIciITXN91kGLIpIwm
kysrij9ZtU2O+YHOaLtyNEMH6TMC03b1p5Ncq5JG13PO+H6vkTc0aC6VSRpsPbpN
xcSUDJ8QS9BQsl6Jcs3SzwIDAQABo4IBWTCCAVUwHQYDVR0OBBYEFHebRF86wK0m
7+GdurIl/JAPXVl3MIGMBgNVHSMEgYQwgYGAFHebRF86wK0m7+GdurIl/JAPXVl3
oV6kXDBaMQswCQYDVQQGEwJGUjEMMAoGA1UECBMDSURGMQ4wDAYDVQQHEwVQYXJp
czEZMBcGA1UEChMQRmFrZSBDQSBmb3IgVGVzdDESMBAGA1UEAxMJTm9kZU9QQ1VB
ggkAuSfGAlvRNAswDAYDVR0TBAUwAwEB/zAOBgNVHQ8BAf8EBAMCAQYwVwYJYIZI
AYb4QgENBEoWSENBIENlcnRpZmljYXRlIGdlbmVyYXRlZCBieSBOb2RlLU9QQ1VB
IENlcnRpZmljYXRlIHV0aWxpdHkgdXNpbmcgb3BlbnNzbDAuBgNVHR8EJzAlMCOg
IaAfhh1odHRwOi8vbG9jYWxob3N0Ojg5MDAvY3JsLnBlbTANBgkqhkiG9w0BAQUF
AAOCAQEAkvC4SR68ak9AD3ELw3fo+hDSnX8dl1Qns8ngKDHj/Nf0UfTLhjZpJsoU
WBeqIcge0+7YN4QWyYAnBgSZQDSWU7gIUY+GoH8TXKR8DCGRPX0FAFnHrTwpw8PW
myHB9MmVizdUJ6s262yb3CWMUsrysFJmEOPNOGsWrbAiYqRiidK/v6Tg71qc9aji
EcE2EMBNgGe66UnClI1eLOtEvbvjOMh2RUYtfpUUpGlBfKzs64PSmihFQQGBO6M3
A4v+2oFjU4GujQsFeVSHAVaoenwYj2LPYCChk156zIM/CvfSgl39QDlr/42ebAHg
p2jUGFzaF9SqiBvl4f0KjHeAzeDUfQ==
-----END CERTIFICATE-----
