Certificate:
    Data:
        Version: 3 (0x2)
        Serial Number: 4101 (0x1005)
        Signature Algorithm: sha256WithRSAEncryption
        Issuer: O=NodeOPCUA, CN=NodeOPCUA
        Validity
            Not Before: May  1 13:27:44 2017 GMT
            Not After : May  1 13:27:44 2018 GMT
        Subject: O=NodeOPCUA, CN=NodeOPCUA
        Subject Public Key Info:
            Public Key Algorithm: rsaEncryption
            RSA Public Key: (1024 bit)
                Modulus (1024 bit):
                    00:bd:04:06:71:34:b1:11:e5:1c:30:49:98:43:f4:
                    a8:6c:65:a6:35:0e:e2:f2:e4:fd:26:4d:c9:b8:70:
                    8d:9d:e2:fc:6b:15:9d:d5:8a:06:0f:2d:51:79:5e:
                    9b:a1:a9:8c:60:03:27:1e:45:6b:bc:60:dc:a5:b7:
                    77:3e:57:9e:db:93:cf:0f:d1:bf:ee:6d:50:d2:65:
                    7e:bc:a4:dc:86:cf:cf:f8:76:b7:88:78:1c:f8:54:
                    7c:1b:ee:f9:68:ef:08:a9:af:fa:f6:90:d0:2f:58:
                    3d:9b:68:17:51:2e:f2:3f:42:40:c5:c8:24:42:c5:
                    3a:f1:c3:de:26:af:dc:a6:f3
                Exponent: 65537 (0x10001)
        X509v3 extensions:
            X509v3 Basic Constraints: critical
                CA:FALSE
            X509v3 Subject Key Identifier: 
                4A:E3:85:C7:DF:2D:DF:65:96:03:77:20:CA:A7:C0:94:01:35:34:B6
            X509v3 Authority Key Identifier: 
                keyid:4A:E3:85:C7:DF:2D:DF:65:96:03:77:20:CA:A7:C0:94:01:35:34:B6
                DirName:/O=NodeOPCUA/CN=NodeOPCUA
                serial:10:05

            X509v3 Subject Alternative Name: 
                URI:urn:localhost:NodeOPCUA-Server, DNS:localhost, DNS:localhost
            Netscape Comment: 
                OpenSSL Generated Certificate
            X509v3 Key Usage: critical
                Digital Signature, Non Repudiation, Key Encipherment, Data Encipherment, Key Agreement, Certificate Sign
            X509v3 Extended Key Usage: critical
                TLS Web Server Authentication, TLS Web Client Authentication
    Signature Algorithm: sha256WithRSAEncryption
        80:33:70:8b:18:88:bf:dd:c4:a0:9b:6b:df:b0:48:24:06:8b:
        17:bf:ba:95:04:6a:b9:b1:93:6d:88:d7:98:76:15:ff:5c:76:
        12:bd:4b:78:48:1b:c0:f0:91:dc:3c:6e:d2:a8:0c:3e:5f:7b:
        bd:e3:cf:32:38:43:7c:a0:f2:d4:64:fa:84:fd:d8:e7:a8:23:
        81:a3:e9:a9:7f:bb:64:5d:61:d7:70:9b:a6:57:4d:db:3f:0f:
        85:04:75:0f:e5:22:8d:ff:dd:35:ec:32:52:64:a1:a7:4d:e5:
        e6:b5:25:98:9c:a7:9f:c2:af:fa:72:6f:b5:0a:2f:be:47:10:
        50:58
-----BEGIN CERTIFICATE-----
MIIC7jCCAlegAwIBAgICEAUwDQYJKoZIhvcNAQELBQAwKDESMBAGA1UEChMJTm9k
ZU9QQ1VBMRIwEAYDVQQDEwlOb2RlT1BDVUEwHhcNMTcwNTAxMTMyNzQ0WhcNMTgw
NTAxMTMyNzQ0WjAoMRIwEAYDVQQKEwlOb2RlT1BDVUExEjAQBgNVBAMTCU5vZGVP
UENVQTCBnzANBgkqhkiG9w0BAQEFAAOBjQAwgYkCgYEAvQQGcTSxEeUcMEmYQ/So
bGWmNQ7i8uT9Jk3JuHCNneL8axWd1YoGDy1ReV6boamMYAMnHkVrvGDcpbd3Plee
25PPD9G/7m1Q0mV+vKTchs/P+Ha3iHgc+FR8G+75aO8Iqa/69pDQL1g9m2gXUS7y
P0JAxcgkQsU68cPeJq/cpvMCAwEAAaOCASUwggEhMAwGA1UdEwEB/wQCMAAwHQYD
VR0OBBYEFErjhcffLd9llgN3IMqnwJQBNTS2MFEGA1UdIwRKMEiAFErjhcffLd9l
lgN3IMqnwJQBNTS2oSykKjAoMRIwEAYDVQQKEwlOb2RlT1BDVUExEjAQBgNVBAMT
CU5vZGVPUENVQYICEAUwPwYDVR0RBDgwNoYedXJuOmxvY2FsaG9zdDpOb2RlT1BD
VUEtU2VydmVygglsb2NhbGhvc3SCCWxvY2FsaG9zdDAsBglghkgBhvhCAQ0EHxYd
T3BlblNTTCBHZW5lcmF0ZWQgQ2VydGlmaWNhdGUwDgYDVR0PAQH/BAQDAgL8MCAG
A1UdJQEB/wQWMBQGCCsGAQUFBwMBBggrBgEFBQcDAjANBgkqhkiG9w0BAQsFAAOB
gQCAM3CLGIi/3cSgm2vfsEgkBosXv7qVBGq5sZNtiNeYdhX/XHYSvUt4SBvA8JHc
PG7SqAw+X3u9488yOEN8oPLUZPqE/djnqCOBo+mpf7tkXWHXcJumV03bPw+FBHUP
5SKN/9017DJSZKGnTeXmtSWYnKefwq/6cm+1Ci++RxBQWA==
-----END CERTIFICATE-----
