Certificate Request:
    Data:
        Version: 0 (0x0)
        Subject: C=FR, ST=IDF, L=Paris, O=Local NODE-OPCUA Certificate Authority, CN=NodeOPCUA-CA
        Subject Public Key Info:
            Public Key Algorithm: rsaEncryption
            RSA Public Key: (2048 bit)
                Modulus (2048 bit):
                    00:cf:64:b2:28:0f:3c:d7:88:38:91:a3:76:2f:ba:
                    7b:98:76:46:4b:c3:a0:8d:72:fa:7b:f1:33:fd:2b:
                    9f:bc:ae:2d:61:ae:6a:3c:24:03:3b:bd:22:52:70:
                    2c:e8:a3:59:fc:6e:ed:8f:f1:db:b3:7b:c0:fe:8e:
                    18:56:db:55:ee:b5:ce:e1:ff:7d:1b:3f:ca:b3:9a:
                    b6:45:2c:2d:06:44:04:d2:92:0a:c9:f7:3a:79:72:
                    50:3d:ca:2e:9c:d1:6d:74:2a:54:e0:db:1f:c1:d9:
                    ed:ca:55:bb:c9:3c:5d:2e:bb:2f:c3:1c:94:6e:b4:
                    bf:85:d2:f8:77:ed:01:63:62:e4:d5:88:44:62:51:
                    9d:7b:7f:bc:25:cc:7d:42:3f:e8:d4:8b:b8:ad:4e:
                    60:47:47:d1:61:f6:cb:56:b9:b1:5b:8d:26:1b:c4:
                    cd:fb:20:bb:af:3f:6e:ca:3d:65:23:99:dd:1e:0c:
                    73:43:92:dc:4c:61:4b:fa:c6:25:db:47:54:e8:6b:
                    5b:72:e9:74:5c:dd:a4:47:00:98:49:37:59:6f:07:
                    2b:56:a9:a2:9b:23:70:16:7a:87:dc:cc:ac:6b:f8:
                    11:49:b3:52:c3:11:4f:2a:ea:ef:ff:35:42:28:e5:
                    2c:2a:f0:2e:70:1b:73:64:b1:12:f8:d9:65:0b:06:
                    c9:b9
                Exponent: 65537 (0x10001)
        Attributes:
        Requested Extensions:
            X509v3 Basic Constraints: critical
                CA:FALSE
            X509v3 Key Usage: 
                Digital Signature, Non Repudiation, Key Encipherment, Data Encipherment, Key Agreement
            X509v3 Subject Alternative Name: 
                URI:undefined
            Netscape Comment: 
                CA Generated by Node-OPCUA Certificate utility using openssl
    Signature Algorithm: sha256WithRSAEncryption
        42:db:92:86:20:47:ff:fe:59:a8:93:ef:8a:0b:f7:51:95:27:
        bc:14:df:e7:12:2d:30:63:9e:3e:97:ea:65:3f:63:b4:b5:38:
        2b:ac:24:17:c0:83:80:69:a8:2f:15:9b:97:fa:70:b4:71:51:
        93:22:89:a5:ea:6b:30:f5:5e:a2:27:81:dc:97:d0:38:b6:2e:
        f5:29:cc:bb:4c:66:9f:85:72:6a:b1:e5:d9:70:7e:83:43:87:
        07:c2:70:3e:60:ef:b8:53:6d:86:d5:b3:3d:48:24:72:09:0f:
        2b:b4:d3:5a:37:dc:43:58:04:95:d4:14:2f:b6:fd:b5:c6:60:
        2d:2b:09:d4:4e:b2:40:cc:a9:a5:3c:76:87:65:cc:9e:a1:84:
        98:6e:e2:63:bd:32:24:5a:58:c3:6f:7d:2e:f7:7e:3e:9a:99:
        27:bb:65:52:e5:5b:1d:31:f1:ab:d9:26:29:a3:a9:ec:fb:56:
        27:c6:05:c3:c9:7e:30:cc:09:98:ff:a8:74:b8:bc:92:4c:c1:
        1f:9f:06:33:d3:48:d2:07:14:82:82:fe:c8:1a:68:76:de:d3:
        a2:55:46:9f:a1:de:32:b6:9b:a2:1b:cd:f9:76:a6:75:56:07:
        ce:00:fa:54:c8:b3:95:a6:6b:9f:10:bf:2a:88:58:16:0a:08:
        bc:e9:ad:5b
-----BEGIN CERTIFICATE REQUEST-----
MIIDSjCCAjICAQAwczELMAkGA1UEBhMCRlIxDDAKBgNVBAgTA0lERjEOMAwGA1UE
BxMFUGFyaXMxLzAtBgNVBAoTJkxvY2FsIE5PREUtT1BDVUEgQ2VydGlmaWNhdGUg
QXV0aG9yaXR5MRUwEwYDVQQDEwxOb2RlT1BDVUEtQ0EwggEiMA0GCSqGSIb3DQEB
AQUAA4IBDwAwggEKAoIBAQDPZLIoDzzXiDiRo3YvunuYdkZLw6CNcvp78TP9K5+8
ri1hrmo8JAM7vSJScCzoo1n8bu2P8duze8D+jhhW21Xutc7h/30bP8qzmrZFLC0G
RATSkgrJ9zp5clA9yi6c0W10KlTg2x/B2e3KVbvJPF0uuy/DHJRutL+F0vh37QFj
YuTViERiUZ17f7wlzH1CP+jUi7itTmBHR9Fh9stWubFbjSYbxM37ILuvP27KPWUj
md0eDHNDktxMYUv6xiXbR1Toa1ty6XRc3aRHAJhJN1lvBytWqaKbI3AWeofczKxr
+BFJs1LDEU8q6u//NUIo5Swq8C5wG3NksRL42WULBsm5AgMBAAGggZEwgY4GCSqG
SIb3DQEJDjGBgDB+MAwGA1UdEwEB/wQCMAAwCwYDVR0PBAQDAgP4MBQGA1UdEQQN
MAuGCXVuZGVmaW5lZDBLBglghkgBhvhCAQ0EPhY8Q0EgR2VuZXJhdGVkIGJ5IE5v
ZGUtT1BDVUEgQ2VydGlmaWNhdGUgdXRpbGl0eSB1c2luZyBvcGVuc3NsMA0GCSqG
SIb3DQEBCwUAA4IBAQBC25KGIEf//lmok++KC/dRlSe8FN/nEi0wY54+l+plP2O0
tTgrrCQXwIOAaagvFZuX+nC0cVGTIoml6msw9V6iJ4Hcl9A4ti71Kcy7TGafhXJq
seXZcH6DQ4cHwnA+YO+4U22G1bM9SCRyCQ8rtNNaN9xDWASV1BQvtv21xmAtKwnU
TrJAzKmlPHaHZcyeoYSYbuJjvTIkWljDb30u934+mpknu2VS5VsdMfGr2SYpo6ns
+1YnxgXDyX4wzAmY/6h0uLySTMEfnwYz00jSBxSCgv7IGmh23tOiVUafod4ytpui
G835dqZ1VgfOAPpUyLOVpmufEL8qiFgWCgi86a1b
-----END CERTIFICATE REQUEST-----
