Certificate:
    Data:
        Version: 3 (0x2)
        Serial Number: 4096 (0x1000)
        Signature Algorithm: sha256WithRSAEncryption
        Issuer: C=FR, ST=IDF, L=Paris, O=Fake CA for Test, CN=NodeOPCUA
        Validity
            Not Before: Apr 11 09:10:35 2017 GMT
            Not After : Apr 11 09:10:35 2018 GMT
        Subject: O=NodeOPCUA, CN=NodeOPCUA
        Subject Public Key Info:
            Public Key Algorithm: rsaEncryption
            RSA Public Key: (1024 bit)
                Modulus (1024 bit):
                    00:d2:c1:fe:90:83:c9:59:5e:58:0f:68:2d:ca:9b:
                    44:e8:45:ba:d4:eb:ff:e4:27:18:6b:75:dc:20:82:
                    0e:a6:15:62:2c:4a:40:d2:bf:b0:ec:93:56:9b:d5:
                    7a:3a:4e:04:80:ac:60:87:e0:c2:5d:81:5e:ed:7f:
                    d6:0d:7e:31:cc:47:18:2b:79:99:df:f2:db:a8:23:
                    4f:ee:de:9d:7f:eb:39:c8:b5:1a:8f:b7:b3:0b:f4:
                    f3:1b:70:f4:b6:be:3b:15:4c:5e:33:82:0b:c1:37:
                    b6:c2:76:b0:d1:b7:d1:c5:89:b5:cc:91:01:53:9f:
                    2d:fd:69:53:c5:bf:7e:2c:c5
                Exponent: 65537 (0x10001)
        X509v3 extensions:
            X509v3 Basic Constraints: critical
                CA:FALSE
            X509v3 Subject Key Identifier: 
                81:34:0D:A9:16:D5:89:B7:4D:DA:1F:C7:01:84:9E:C3:06:A8:3D:94
            X509v3 Authority Key Identifier: 
                keyid:77:9B:44:5F:3A:C0:AD:26:EF:E1:9D:BA:B2:25:FC:90:0F:5D:59:77
                DirName:/C=FR/ST=IDF/L=Paris/O=Fake CA for Test/CN=NodeOPCUA
                serial:B9:27:C6:02:5B:D1:34:0B

            X509v3 Subject Alternative Name: 
                URI:urn:localhost:NodeOPCUA-Client, DNS:localhost, DNS:localhost
            Netscape Comment: 
                OpenSSL Generated Certificate
            X509v3 Key Usage: critical
                Digital Signature, Non Repudiation, Key Encipherment, Data Encipherment, Key Agreement, Certificate Sign
            X509v3 Extended Key Usage: critical
                TLS Web Server Authentication, TLS Web Client Authentication
    Signature Algorithm: sha256WithRSAEncryption
        2e:b3:bf:0f:c8:56:e4:78:2c:e7:60:86:40:3c:d5:ef:98:33:
        de:42:8a:de:23:b1:0e:15:a1:3b:1d:a3:27:6b:53:52:e0:32:
        a4:d4:d2:c0:9f:b0:fa:82:e4:de:c9:77:1f:85:8a:67:ca:d0:
        bb:5c:45:9c:c9:24:32:47:e0:9d:06:ae:e9:e5:58:c3:26:76:
        7a:20:a1:bb:68:82:8e:95:bc:bb:f0:1b:c5:fc:9a:b6:53:cb:
        87:f1:20:1f:d3:ec:84:13:4a:f3:a1:1c:11:3b:74:eb:16:5c:
        ae:80:e8:40:10:1f:a7:ae:9b:81:17:23:7b:c0:3f:1a:d3:ea:
        e5:33:ab:06:bb:9c:c0:f6:75:cd:fa:c8:41:fb:02:84:56:53:
        74:a0:5e:39:44:32:19:f8:b0:a1:7a:d0:65:0d:58:b0:b4:b8:
        fc:cd:70:bd:a9:59:38:58:d4:8f:68:41:ef:72:9c:7c:8c:a8:
        a5:8b:bd:8f:3d:ed:bb:38:d3:52:f4:45:9a:8a:c5:26:be:38:
        3a:a4:e2:ad:d5:c2:b4:ab:c3:2c:cc:f7:09:81:fa:fd:47:c5:
        2a:4f:05:6a:70:9d:db:7a:36:c6:98:33:4d:c5:4b:38:5a:d4:
        69:84:b2:20:37:7c:dc:49:5d:5b:4f:4e:d2:f8:f1:b8:04:fb:
        9b:cc:09:f4
-----BEGIN CERTIFICATE-----
MIID3TCCAsWgAwIBAgICEAAwDQYJKoZIhvcNAQELBQAwWjELMAkGA1UEBhMCRlIx
DDAKBgNVBAgTA0lERjEOMAwGA1UEBxMFUGFyaXMxGTAXBgNVBAoTEEZha2UgQ0Eg
Zm9yIFRlc3QxEjAQBgNVBAMTCU5vZGVPUENVQTAeFw0xNzA0MTEwOTEwMzVaFw0x
ODA0MTEwOTEwMzVaMCgxEjAQBgNVBAoTCU5vZGVPUENVQTESMBAGA1UEAxMJTm9k
ZU9QQ1VBMIGfMA0GCSqGSIb3DQEBAQUAA4GNADCBiQKBgQDSwf6Qg8lZXlgPaC3K
m0ToRbrU6//kJxhrddwggg6mFWIsSkDSv7Dsk1ab1Xo6TgSArGCH4MJdgV7tf9YN
fjHMRxgreZnf8tuoI0/u3p1/6znItRqPt7ML9PMbcPS2vjsVTF4zggvBN7bCdrDR
t9HFibXMkQFTny39aVPFv34sxQIDAQABo4IBYTCCAV0wDAYDVR0TAQH/BAIwADAd
BgNVHQ4EFgQUgTQNqRbVibdN2h/HAYSewwaoPZQwgYwGA1UdIwSBhDCBgYAUd5tE
XzrArSbv4Z26siX8kA9dWXehXqRcMFoxCzAJBgNVBAYTAkZSMQwwCgYDVQQIEwNJ
REYxDjAMBgNVBAcTBVBhcmlzMRkwFwYDVQQKExBGYWtlIENBIGZvciBUZXN0MRIw
EAYDVQQDEwlOb2RlT1BDVUGCCQC5J8YCW9E0CzA/BgNVHREEODA2hh51cm46bG9j
YWxob3N0Ok5vZGVPUENVQS1DbGllbnSCCWxvY2FsaG9zdIIJbG9jYWxob3N0MCwG
CWCGSAGG+EIBDQQfFh1PcGVuU1NMIEdlbmVyYXRlZCBDZXJ0aWZpY2F0ZTAOBgNV
HQ8BAf8EBAMCAvwwIAYDVR0lAQH/BBYwFAYIKwYBBQUHAwEGCCsGAQUFBwMCMA0G
CSqGSIb3DQEBCwUAA4IBAQAus78PyFbkeCznYIZAPNXvmDPeQoreI7EOFaE7HaMn
a1NS4DKk1NLAn7D6guTeyXcfhYpnytC7XEWcySQyR+CdBq7p5VjDJnZ6IKG7aIKO
lby78BvF/Jq2U8uH8SAf0+yEE0rzoRwRO3TrFlyugOhAEB+nrpuBFyN7wD8a0+rl
M6sGu5zA9nXN+shB+wKEVlN0oF45RDIZ+LChetBlDViwtLj8zXC9qVk4WNSPaEHv
cpx8jKili72PPe27ONNS9EWaisUmvjg6pOKt1cK0q8MszPcJgfr9R8UqTwVqcJ3b
ejbGmDNNxUs4WtRphLIgN3zcSV1bT07S+PG4BPubzAn0
-----END CERTIFICATE-----
