Certificate:
    Data:
        Version: 3 (0x2)
        Serial Number: 4097 (0x1001)
        Signature Algorithm: sha256WithRSAEncryption
        Issuer: C=FR, ST=IDF, L=Paris, O=Fake CA for Test, CN=NodeOPCUA
        Validity
            Not Before: Apr 11 09:10:35 2017 GMT
            Not After : Apr 11 09:10:35 2018 GMT
        Subject: O=NodeOPCUA, CN=NodeOPCUA
        Subject Public Key Info:
            Public Key Algorithm: rsaEncryption
            RSA Public Key: (2048 bit)
                Modulus (2048 bit):
                    00:ba:c9:f0:cd:62:18:9c:90:c0:a7:10:2f:95:c2:
                    95:25:d7:00:73:e5:af:07:44:de:3d:c3:83:11:0d:
                    a8:0f:f2:cc:60:45:28:2e:69:8b:3c:b3:15:6e:80:
                    c3:c4:ee:93:c9:14:75:6f:af:49:d4:6d:cc:3e:ee:
                    03:31:a7:ee:5a:68:78:26:81:9f:af:a6:1b:2f:e7:
                    2b:25:b4:17:31:7e:fc:7b:30:c5:3e:03:aa:6e:f2:
                    66:f3:60:ba:b4:9f:80:18:da:72:c5:f0:e4:93:15:
                    f1:ac:f6:de:f4:95:bc:f6:eb:63:fb:1b:03:4a:cf:
                    17:5c:44:e1:2e:04:26:82:66:49:42:34:d5:a0:65:
                    23:0d:81:91:ad:82:c5:4e:9e:b4:b4:31:c7:2d:6d:
                    c7:69:1a:23:9c:87:72:8d:8e:19:1b:0a:49:d2:6f:
                    1c:4c:53:6d:55:cf:f8:91:cd:d8:f7:c6:01:52:19:
                    45:dd:a1:e2:97:52:31:7b:5c:e6:77:3d:a1:76:6c:
                    11:4a:24:04:b6:5d:28:04:7e:0e:16:3e:af:49:6f:
                    bb:fe:d3:3c:94:2a:9e:3d:80:a7:8f:c8:34:0f:25:
                    15:28:ad:85:0b:a7:a0:ff:52:b0:4e:09:da:e3:4b:
                    60:06:f4:27:25:a6:62:3b:c9:98:4d:5b:ca:75:31:
                    d9:59
                Exponent: 65537 (0x10001)
        X509v3 extensions:
            X509v3 Basic Constraints: critical
                CA:FALSE
            X509v3 Subject Key Identifier: 
                7F:47:B9:D0:C5:F0:74:4A:0A:6D:DF:D9:04:C9:F2:FF:6E:C3:4C:98
            X509v3 Authority Key Identifier: 
                keyid:77:9B:44:5F:3A:C0:AD:26:EF:E1:9D:BA:B2:25:FC:90:0F:5D:59:77
                DirName:/C=FR/ST=IDF/L=Paris/O=Fake CA for Test/CN=NodeOPCUA
                serial:B9:27:C6:02:5B:D1:34:0B

            X509v3 Subject Alternative Name: 
                URI:urn:localhost:NodeOPCUA-Client, DNS:localhost, DNS:localhost
            Netscape Comment: 
                OpenSSL Generated Certificate
            X509v3 Key Usage: critical
                Digital Signature, Non Repudiation, Key Encipherment, Data Encipherment, Key Agreement, Certificate Sign
            X509v3 Extended Key Usage: critical
                TLS Web Server Authentication, TLS Web Client Authentication
    Signature Algorithm: sha256WithRSAEncryption
        47:92:bb:bc:bc:84:35:a8:04:63:76:dc:be:9f:ab:66:db:df:
        dd:4b:e7:5d:13:73:eb:92:7d:6e:49:db:43:55:71:a7:30:b4:
        16:64:a8:cb:76:d7:4c:06:dc:ce:20:4d:db:db:65:70:6c:ad:
        6d:74:58:ea:29:78:89:9e:d2:23:6b:0f:ff:b2:37:3a:4c:90:
        f6:47:1e:42:82:d6:1c:c2:b0:01:c7:87:43:dc:a6:81:71:d3:
        43:8d:db:00:16:ce:0f:6c:48:29:57:bb:d3:a2:5a:b8:e2:03:
        1a:73:38:8e:4f:6c:eb:03:3c:4b:9d:f5:8b:5b:cc:0c:fb:48:
        0c:82:33:90:af:a3:ca:1e:82:75:7d:66:89:fb:f8:11:2c:de:
        29:5f:d6:bb:39:5f:8a:29:ff:0b:08:a6:99:2b:b7:f1:6d:94:
        3b:7e:97:ec:ba:e3:9d:23:06:de:2e:70:a9:49:dd:7a:d6:8f:
        14:d0:a8:a5:09:ef:c2:87:2d:99:f5:2e:ee:0a:02:aa:27:37:
        41:31:e9:7a:fd:d4:a5:b8:12:95:5d:47:0d:16:7a:e6:3d:03:
        d9:e3:e2:10:a9:f6:99:29:ef:80:d9:b4:7e:68:e6:b1:bf:bb:
        d1:d0:a2:e3:48:2e:97:ad:a0:e2:8d:e2:4a:16:38:93:78:cc:
        15:6c:34:ae
-----BEGIN CERTIFICATE-----
MIIEYTCCA0mgAwIBAgICEAEwDQYJKoZIhvcNAQELBQAwWjELMAkGA1UEBhMCRlIx
DDAKBgNVBAgTA0lERjEOMAwGA1UEBxMFUGFyaXMxGTAXBgNVBAoTEEZha2UgQ0Eg
Zm9yIFRlc3QxEjAQBgNVBAMTCU5vZGVPUENVQTAeFw0xNzA0MTEwOTEwMzVaFw0x
ODA0MTEwOTEwMzVaMCgxEjAQBgNVBAoTCU5vZGVPUENVQTESMBAGA1UEAxMJTm9k
ZU9QQ1VBMIIBIjANBgkqhkiG9w0BAQEFAAOCAQ8AMIIBCgKCAQEAusnwzWIYnJDA
pxAvlcKVJdcAc+WvB0TePcODEQ2oD/LMYEUoLmmLPLMVboDDxO6TyRR1b69J1G3M
Pu4DMafuWmh4JoGfr6YbL+crJbQXMX78ezDFPgOqbvJm82C6tJ+AGNpyxfDkkxXx
rPbe9JW89utj+xsDSs8XXEThLgQmgmZJQjTVoGUjDYGRrYLFTp60tDHHLW3HaRoj
nIdyjY4ZGwpJ0m8cTFNtVc/4kc3Y98YBUhlF3aHil1Ixe1zmdz2hdmwRSiQEtl0o
BH4OFj6vSW+7/tM8lCqePYCnj8g0DyUVKK2FC6eg/1KwTgna40tgBvQnJaZiO8mY
TVvKdTHZWQIDAQABo4IBYTCCAV0wDAYDVR0TAQH/BAIwADAdBgNVHQ4EFgQUf0e5
0MXwdEoKbd/ZBMny/27DTJgwgYwGA1UdIwSBhDCBgYAUd5tEXzrArSbv4Z26siX8
kA9dWXehXqRcMFoxCzAJBgNVBAYTAkZSMQwwCgYDVQQIEwNJREYxDjAMBgNVBAcT
BVBhcmlzMRkwFwYDVQQKExBGYWtlIENBIGZvciBUZXN0MRIwEAYDVQQDEwlOb2Rl
T1BDVUGCCQC5J8YCW9E0CzA/BgNVHREEODA2hh51cm46bG9jYWxob3N0Ok5vZGVP
UENVQS1DbGllbnSCCWxvY2FsaG9zdIIJbG9jYWxob3N0MCwGCWCGSAGG+EIBDQQf
Fh1PcGVuU1NMIEdlbmVyYXRlZCBDZXJ0aWZpY2F0ZTAOBgNVHQ8BAf8EBAMCAvww
IAYDVR0lAQH/BBYwFAYIKwYBBQUHAwEGCCsGAQUFBwMCMA0GCSqGSIb3DQEBCwUA
A4IBAQBHkru8vIQ1qARjdty+n6tm29/dS+ddE3Prkn1uSdtDVXGnMLQWZKjLdtdM
BtzOIE3b22VwbK1tdFjqKXiJntIjaw//sjc6TJD2Rx5CgtYcwrABx4dD3KaBcdND
jdsAFs4PbEgpV7vTolq44gMacziOT2zrAzxLnfWLW8wM+0gMgjOQr6PKHoJ1fWaJ
+/gRLN4pX9a7OV+KKf8LCKaZK7fxbZQ7fpfsuuOdIwbeLnCpSd161o8U0KilCe/C
hy2Z9S7uCgKqJzdBMel6/dSluBKVXUcNFnrmPQPZ4+IQqfaZKe+A2bR+aOaxv7vR
0KLjSC6XraDijeJKFjiTeMwVbDSu
-----END CERTIFICATE-----
