Certificate:
    Data:
        Version: 3 (0x2)
        Serial Number: 4098 (0x1002)
        Signature Algorithm: sha256WithRSAEncryption
        Issuer: O=NodeOPCUA, CN=NodeOPCUA
        Validity
            Not Before: Apr 11 09:10:35 2017 GMT
            Not After : Apr 11 09:10:35 2018 GMT
        Subject: O=NodeOPCUA, CN=NodeOPCUA
        Subject Public Key Info:
            Public Key Algorithm: rsaEncryption
            RSA Public Key: (1024 bit)
                Modulus (1024 bit):
                    00:d2:c1:fe:90:83:c9:59:5e:58:0f:68:2d:ca:9b:
                    44:e8:45:ba:d4:eb:ff:e4:27:18:6b:75:dc:20:82:
                    0e:a6:15:62:2c:4a:40:d2:bf:b0:ec:93:56:9b:d5:
                    7a:3a:4e:04:80:ac:60:87:e0:c2:5d:81:5e:ed:7f:
                    d6:0d:7e:31:cc:47:18:2b:79:99:df:f2:db:a8:23:
                    4f:ee:de:9d:7f:eb:39:c8:b5:1a:8f:b7:b3:0b:f4:
                    f3:1b:70:f4:b6:be:3b:15:4c:5e:33:82:0b:c1:37:
                    b6:c2:76:b0:d1:b7:d1:c5:89:b5:cc:91:01:53:9f:
                    2d:fd:69:53:c5:bf:7e:2c:c5
                Exponent: 65537 (0x10001)
        X509v3 extensions:
            X509v3 Basic Constraints: critical
                CA:FALSE
            X509v3 Subject Key Identifier: 
                81:34:0D:A9:16:D5:89:B7:4D:DA:1F:C7:01:84:9E:C3:06:A8:3D:94
            X509v3 Authority Key Identifier: 
                keyid:81:34:0D:A9:16:D5:89:B7:4D:DA:1F:C7:01:84:9E:C3:06:A8:3D:94
                DirName:/O=NodeOPCUA/CN=NodeOPCUA
                serial:10:02

            X509v3 Subject Alternative Name: 
                URI:urn:localhost:NodeOPCUA-Client, DNS:localhost, DNS:localhost
            Netscape Comment: 
                OpenSSL Generated Certificate
            X509v3 Key Usage: critical
                Digital Signature, Non Repudiation, Key Encipherment, Data Encipherment, Key Agreement, Certificate Sign
            X509v3 Extended Key Usage: critical
                TLS Web Server Authentication, TLS Web Client Authentication
    Signature Algorithm: sha256WithRSAEncryption
        52:f6:85:3d:e7:b3:d4:7d:d7:3d:e7:cd:e9:b7:dd:68:b7:bb:
        db:e0:fa:70:01:22:39:a7:21:f8:be:49:28:49:cd:c3:50:7d:
        83:fd:d1:68:10:7e:22:ec:b8:cd:90:c3:93:21:e3:ea:25:11:
        22:44:60:9c:af:e9:63:14:b6:83:27:24:9b:43:45:0d:12:55:
        7e:23:7f:cd:f6:2a:82:3f:12:0a:9c:d4:25:b6:b4:8e:73:e8:
        ec:a9:2f:f0:5a:0b:f7:f8:10:d8:eb:02:f2:7d:4a:8c:2d:5a:
        1e:c9:99:47:52:ad:12:c7:a3:d8:e8:cc:99:b6:c0:ec:1e:50:
        53:69
-----BEGIN CERTIFICATE-----
MIIC7jCCAlegAwIBAgICEAIwDQYJKoZIhvcNAQELBQAwKDESMBAGA1UEChMJTm9k
ZU9QQ1VBMRIwEAYDVQQDEwlOb2RlT1BDVUEwHhcNMTcwNDExMDkxMDM1WhcNMTgw
NDExMDkxMDM1WjAoMRIwEAYDVQQKEwlOb2RlT1BDVUExEjAQBgNVBAMTCU5vZGVP
UENVQTCBnzANBgkqhkiG9w0BAQEFAAOBjQAwgYkCgYEA0sH+kIPJWV5YD2gtyptE
6EW61Ov/5CcYa3XcIIIOphViLEpA0r+w7JNWm9V6Ok4EgKxgh+DCXYFe7X/WDX4x
zEcYK3mZ3/LbqCNP7t6df+s5yLUaj7ezC/TzG3D0tr47FUxeM4ILwTe2wnaw0bfR
xYm1zJEBU58t/WlTxb9+LMUCAwEAAaOCASUwggEhMAwGA1UdEwEB/wQCMAAwHQYD
VR0OBBYEFIE0DakW1Ym3TdofxwGEnsMGqD2UMFEGA1UdIwRKMEiAFIE0DakW1Ym3
TdofxwGEnsMGqD2UoSykKjAoMRIwEAYDVQQKEwlOb2RlT1BDVUExEjAQBgNVBAMT
CU5vZGVPUENVQYICEAIwPwYDVR0RBDgwNoYedXJuOmxvY2FsaG9zdDpOb2RlT1BD
VUEtQ2xpZW50gglsb2NhbGhvc3SCCWxvY2FsaG9zdDAsBglghkgBhvhCAQ0EHxYd
T3BlblNTTCBHZW5lcmF0ZWQgQ2VydGlmaWNhdGUwDgYDVR0PAQH/BAQDAgL8MCAG
A1UdJQEB/wQWMBQGCCsGAQUFBwMBBggrBgEFBQcDAjANBgkqhkiG9w0BAQsFAAOB
gQBS9oU957PUfdc9583pt91ot7vb4PpwASI5pyH4vkkoSc3DUH2D/dFoEH4i7LjN
kMOTIePqJREiRGCcr+ljFLaDJySbQ0UNElV+I3/N9iqCPxIKnNQltrSOc+jsqS/w
Wgv3+BDY6wLyfUqMLVoeyZlHUq0Sx6PY6MyZtsDsHlBTaQ==
-----END CERTIFICATE-----
