Certificate:
    Data:
        Version: 3 (0x2)
        Serial Number: 4099 (0x1003)
        Signature Algorithm: sha256WithRSAEncryption
        Issuer: O=NodeOPCUA, CN=NodeOPCUA
        Validity
            Not Before: Apr 11 09:10:35 2017 GMT
            Not After : Apr 11 09:10:35 2018 GMT
        Subject: O=NodeOPCUA, CN=NodeOPCUA
        Subject Public Key Info:
            Public Key Algorithm: rsaEncryption
            RSA Public Key: (2048 bit)
                Modulus (2048 bit):
                    00:ba:c9:f0:cd:62:18:9c:90:c0:a7:10:2f:95:c2:
                    95:25:d7:00:73:e5:af:07:44:de:3d:c3:83:11:0d:
                    a8:0f:f2:cc:60:45:28:2e:69:8b:3c:b3:15:6e:80:
                    c3:c4:ee:93:c9:14:75:6f:af:49:d4:6d:cc:3e:ee:
                    03:31:a7:ee:5a:68:78:26:81:9f:af:a6:1b:2f:e7:
                    2b:25:b4:17:31:7e:fc:7b:30:c5:3e:03:aa:6e:f2:
                    66:f3:60:ba:b4:9f:80:18:da:72:c5:f0:e4:93:15:
                    f1:ac:f6:de:f4:95:bc:f6:eb:63:fb:1b:03:4a:cf:
                    17:5c:44:e1:2e:04:26:82:66:49:42:34:d5:a0:65:
                    23:0d:81:91:ad:82:c5:4e:9e:b4:b4:31:c7:2d:6d:
                    c7:69:1a:23:9c:87:72:8d:8e:19:1b:0a:49:d2:6f:
                    1c:4c:53:6d:55:cf:f8:91:cd:d8:f7:c6:01:52:19:
                    45:dd:a1:e2:97:52:31:7b:5c:e6:77:3d:a1:76:6c:
                    11:4a:24:04:b6:5d:28:04:7e:0e:16:3e:af:49:6f:
                    bb:fe:d3:3c:94:2a:9e:3d:80:a7:8f:c8:34:0f:25:
                    15:28:ad:85:0b:a7:a0:ff:52:b0:4e:09:da:e3:4b:
                    60:06:f4:27:25:a6:62:3b:c9:98:4d:5b:ca:75:31:
                    d9:59
                Exponent: 65537 (0x10001)
        X509v3 extensions:
            X509v3 Basic Constraints: critical
                CA:FALSE
            X509v3 Subject Key Identifier: 
                7F:47:B9:D0:C5:F0:74:4A:0A:6D:DF:D9:04:C9:F2:FF:6E:C3:4C:98
            X509v3 Authority Key Identifier: 
                keyid:7F:47:B9:D0:C5:F0:74:4A:0A:6D:DF:D9:04:C9:F2:FF:6E:C3:4C:98
                DirName:/O=NodeOPCUA/CN=NodeOPCUA
                serial:10:03

            X509v3 Subject Alternative Name: 
                URI:urn:localhost:NodeOPCUA-Client, DNS:localhost, DNS:localhost
            Netscape Comment: 
                OpenSSL Generated Certificate
            X509v3 Key Usage: critical
                Digital Signature, Non Repudiation, Key Encipherment, Data Encipherment, Key Agreement, Certificate Sign
            X509v3 Extended Key Usage: critical
                TLS Web Server Authentication, TLS Web Client Authentication
    Signature Algorithm: sha256WithRSAEncryption
        4c:05:86:7d:8a:ff:33:8f:46:c3:21:eb:65:98:69:a2:02:85:
        ae:57:d9:a5:66:3e:92:d1:81:0d:d8:15:33:77:95:a0:6c:0e:
        4c:95:b8:59:fe:ba:10:25:e1:3e:23:cb:24:97:67:c7:23:32:
        cc:58:ab:ed:29:1a:30:2a:ee:65:93:b2:f4:f8:42:07:e4:c2:
        90:f5:99:2d:8d:06:9f:46:55:7c:b0:54:de:2a:6d:5f:4e:8b:
        2b:7d:7a:58:1a:f9:b6:2f:74:75:18:cf:21:a0:0c:b0:e0:fb:
        97:ae:a0:72:3d:19:d6:bb:80:c3:b9:01:2b:e8:4c:47:a1:9f:
        fa:60:fc:25:4a:22:d8:f8:91:05:b4:91:8b:b6:61:48:07:48:
        e5:e6:e6:05:93:8f:bd:c8:14:53:bf:81:4e:ee:71:6e:11:d3:
        db:c1:8e:dd:35:7f:c6:42:1b:9b:2a:59:02:39:18:47:f1:5a:
        ee:e5:b9:50:43:0d:c3:ac:1b:c1:ed:97:76:3b:e7:89:49:72:
        df:15:92:b2:34:fe:96:e6:03:a8:10:6f:70:a6:c8:03:aa:bb:
        b4:19:9e:c8:41:94:35:8b:89:67:41:f2:21:52:73:91:ca:58:
        99:ce:a7:b9:d0:34:d0:09:3c:c1:df:fe:66:9c:7f:a0:72:d7:
        e1:0b:30:9f
-----BEGIN CERTIFICATE-----
MIID8zCCAtugAwIBAgICEAMwDQYJKoZIhvcNAQELBQAwKDESMBAGA1UEChMJTm9k
ZU9QQ1VBMRIwEAYDVQQDEwlOb2RlT1BDVUEwHhcNMTcwNDExMDkxMDM1WhcNMTgw
NDExMDkxMDM1WjAoMRIwEAYDVQQKEwlOb2RlT1BDVUExEjAQBgNVBAMTCU5vZGVP
UENVQTCCASIwDQYJKoZIhvcNAQEBBQADggEPADCCAQoCggEBALrJ8M1iGJyQwKcQ
L5XClSXXAHPlrwdE3j3DgxENqA/yzGBFKC5pizyzFW6Aw8Tuk8kUdW+vSdRtzD7u
AzGn7lpoeCaBn6+mGy/nKyW0FzF+/HswxT4Dqm7yZvNgurSfgBjacsXw5JMV8az2
3vSVvPbrY/sbA0rPF1xE4S4EJoJmSUI01aBlIw2Bka2CxU6etLQxxy1tx2kaI5yH
co2OGRsKSdJvHExTbVXP+JHN2PfGAVIZRd2h4pdSMXtc5nc9oXZsEUokBLZdKAR+
DhY+r0lvu/7TPJQqnj2Ap4/INA8lFSithQunoP9SsE4J2uNLYAb0JyWmYjvJmE1b
ynUx2VkCAwEAAaOCASUwggEhMAwGA1UdEwEB/wQCMAAwHQYDVR0OBBYEFH9HudDF
8HRKCm3f2QTJ8v9uw0yYMFEGA1UdIwRKMEiAFH9HudDF8HRKCm3f2QTJ8v9uw0yY
oSykKjAoMRIwEAYDVQQKEwlOb2RlT1BDVUExEjAQBgNVBAMTCU5vZGVPUENVQYIC
EAMwPwYDVR0RBDgwNoYedXJuOmxvY2FsaG9zdDpOb2RlT1BDVUEtQ2xpZW50ggls
b2NhbGhvc3SCCWxvY2FsaG9zdDAsBglghkgBhvhCAQ0EHxYdT3BlblNTTCBHZW5l
cmF0ZWQgQ2VydGlmaWNhdGUwDgYDVR0PAQH/BAQDAgL8MCAGA1UdJQEB/wQWMBQG
CCsGAQUFBwMBBggrBgEFBQcDAjANBgkqhkiG9w0BAQsFAAOCAQEATAWGfYr/M49G
wyHrZZhpogKFrlfZpWY+ktGBDdgVM3eVoGwOTJW4Wf66ECXhPiPLJJdnxyMyzFir
7SkaMCruZZOy9PhCB+TCkPWZLY0Gn0ZVfLBU3iptX06LK316WBr5ti90dRjPIaAM
sOD7l66gcj0Z1ruAw7kBK+hMR6Gf+mD8JUoi2PiRBbSRi7ZhSAdI5ebmBZOPvcgU
U7+BTu5xbhHT28GO3TV/xkIbmypZAjkYR/Fa7uW5UEMNw6wbwe2XdjvniUly3xWS
sjT+luYDqBBvcKbIA6q7tBmeyEGUNYuJZ0HyIVJzkcpYmc6nudA00Ak8wd/+Zpx/
oHLX4Qswnw==
-----END CERTIFICATE-----
