Certificate:
    Data:
        Version: 3 (0x2)
        Serial Number: 4100 (0x1004)
        Signature Algorithm: sha256WithRSAEncryption
        Issuer: C=FR, ST=IDF, L=Paris, O=Fake CA for Test, CN=NodeOPCUA
        Validity
            Not Before: Apr 11 09:10:35 2017 GMT
            Not After : Apr 11 09:10:35 2018 GMT
        Subject: O=NodeOPCUA, CN=NodeOPCUA
        Subject Public Key Info:
            Public Key Algorithm: rsaEncryption
            RSA Public Key: (1024 bit)
                Modulus (1024 bit):
                    00:e7:26:f9:0a:e4:5f:8c:f0:f0:22:74:12:71:35:
                    de:12:d7:91:c8:f5:27:56:db:50:e0:9a:74:75:dd:
                    4f:fe:35:84:40:c5:20:77:da:22:bf:3c:2c:29:ce:
                    9b:5c:fc:81:5b:a1:dc:f6:10:5b:a5:a9:a5:1e:ce:
                    26:d8:07:41:49:e3:e1:74:4f:da:d6:97:25:0c:9a:
                    11:3f:37:5e:5e:89:ae:c9:eb:67:84:ee:c7:7c:28:
                    3e:00:5e:bc:e3:0b:15:2e:86:fa:bc:78:e1:77:be:
                    97:5f:e4:ee:38:25:24:84:04:6a:f4:c4:d2:77:7a:
                    e9:6e:58:f9:6a:0f:4e:fa:af
                Exponent: 65537 (0x10001)
        X509v3 extensions:
            X509v3 Basic Constraints: critical
                CA:FALSE
            X509v3 Subject Key Identifier: 
                F6:15:B0:8A:D4:A8:8D:FB:D7:3A:40:64:F6:65:25:20:E8:03:1A:9B
            X509v3 Authority Key Identifier: 
                keyid:77:9B:44:5F:3A:C0:AD:26:EF:E1:9D:BA:B2:25:FC:90:0F:5D:59:77
                DirName:/C=FR/ST=IDF/L=Paris/O=Fake CA for Test/CN=NodeOPCUA
                serial:B9:27:C6:02:5B:D1:34:0B

            X509v3 Subject Alternative Name: 
                URI:urn:localhost:NodeOPCUA-Server, DNS:localhost, DNS:localhost
            Netscape Comment: 
                OpenSSL Generated Certificate
            X509v3 Key Usage: critical
                Digital Signature, Non Repudiation, Key Encipherment, Data Encipherment, Key Agreement, Certificate Sign
            X509v3 Extended Key Usage: critical
                TLS Web Server Authentication, TLS Web Client Authentication
    Signature Algorithm: sha256WithRSAEncryption
        0a:b9:da:bc:1e:b1:84:89:1a:92:06:99:b3:04:2a:86:1c:a1:
        55:31:58:3c:91:9c:24:42:07:09:10:a6:f0:74:e3:93:e0:97:
        bc:93:b0:33:72:54:1d:e4:cd:b2:d9:ff:8e:71:b0:92:1a:06:
        f8:17:9b:aa:2d:a4:5f:d7:04:ac:9e:a0:ba:e9:24:00:fc:8c:
        60:50:1a:6d:97:8d:60:e8:86:b8:b5:50:40:65:e6:21:6b:a7:
        10:75:68:c2:54:a6:1d:f4:eb:29:5f:3b:16:30:47:65:49:ca:
        cc:23:38:ca:88:bc:07:15:ef:3d:b6:39:2a:03:07:c7:12:dd:
        64:62:c4:01:dd:fa:6c:10:5c:23:df:15:67:52:90:15:9c:61:
        44:04:fd:9b:cb:2a:c2:8e:90:43:1b:ca:ee:35:6d:d9:2c:72:
        72:bc:7b:15:c7:de:6a:45:0a:79:86:fc:06:36:97:9e:3a:6d:
        5b:b8:4e:5c:6e:9f:d5:58:b8:36:f7:8d:d2:3a:48:ab:64:7e:
        bf:77:5c:10:64:59:0f:ce:04:38:ec:ac:13:0a:76:6a:d8:14:
        97:52:72:cc:93:ed:db:d4:dd:a8:da:46:6e:9a:2b:59:06:1d:
        d6:2e:a1:c3:ba:85:3f:2d:80:ba:ac:86:a1:6c:59:1c:c1:53:
        10:ee:60:28
-----BEGIN CERTIFICATE-----
MIID3TCCAsWgAwIBAgICEAQwDQYJKoZIhvcNAQELBQAwWjELMAkGA1UEBhMCRlIx
DDAKBgNVBAgTA0lERjEOMAwGA1UEBxMFUGFyaXMxGTAXBgNVBAoTEEZha2UgQ0Eg
Zm9yIFRlc3QxEjAQBgNVBAMTCU5vZGVPUENVQTAeFw0xNzA0MTEwOTEwMzVaFw0x
ODA0MTEwOTEwMzVaMCgxEjAQBgNVBAoTCU5vZGVPUENVQTESMBAGA1UEAxMJTm9k
ZU9QQ1VBMIGfMA0GCSqGSIb3DQEBAQUAA4GNADCBiQKBgQDnJvkK5F+M8PAidBJx
Nd4S15HI9SdW21DgmnR13U/+NYRAxSB32iK/PCwpzptc/IFbodz2EFulqaUezibY
B0FJ4+F0T9rWlyUMmhE/N15eia7J62eE7sd8KD4AXrzjCxUuhvq8eOF3vpdf5O44
JSSEBGr0xNJ3euluWPlqD076rwIDAQABo4IBYTCCAV0wDAYDVR0TAQH/BAIwADAd
BgNVHQ4EFgQU9hWwitSojfvXOkBk9mUlIOgDGpswgYwGA1UdIwSBhDCBgYAUd5tE
XzrArSbv4Z26siX8kA9dWXehXqRcMFoxCzAJBgNVBAYTAkZSMQwwCgYDVQQIEwNJ
REYxDjAMBgNVBAcTBVBhcmlzMRkwFwYDVQQKExBGYWtlIENBIGZvciBUZXN0MRIw
EAYDVQQDEwlOb2RlT1BDVUGCCQC5J8YCW9E0CzA/BgNVHREEODA2hh51cm46bG9j
YWxob3N0Ok5vZGVPUENVQS1TZXJ2ZXKCCWxvY2FsaG9zdIIJbG9jYWxob3N0MCwG
CWCGSAGG+EIBDQQfFh1PcGVuU1NMIEdlbmVyYXRlZCBDZXJ0aWZpY2F0ZTAOBgNV
HQ8BAf8EBAMCAvwwIAYDVR0lAQH/BBYwFAYIKwYBBQUHAwEGCCsGAQUFBwMCMA0G
CSqGSIb3DQEBCwUAA4IBAQAKudq8HrGEiRqSBpmzBCqGHKFVMVg8kZwkQgcJEKbw
dOOT4Je8k7AzclQd5M2y2f+OcbCSGgb4F5uqLaRf1wSsnqC66SQA/IxgUBptl41g
6Ia4tVBAZeYha6cQdWjCVKYd9OspXzsWMEdlScrMIzjKiLwHFe89tjkqAwfHEt1k
YsQB3fpsEFwj3xVnUpAVnGFEBP2byyrCjpBDG8ruNW3ZLHJyvHsVx95qRQp5hvwG
NpeeOm1buE5cbp/VWLg2943SOkirZH6/d1wQZFkPzgQ47KwTCnZq2BSXUnLMk+3b
1N2o2kZumitZBh3WLqHDuoU/LYC6rIahbFkcwVMQ7mAo
-----END CERTIFICATE-----
