Certificate:
    Data:
        Version: 3 (0x2)
        Serial Number: 4104 (0x1008)
        Signature Algorithm: sha256WithRSAEncryption
        Issuer: C=FR, ST=IDF, L=Paris, O=Fake CA for Test, CN=NodeOPCUA
        Validity
            Not Before: Apr 11 09:10:35 2017 GMT
            Not After : Apr 11 09:10:35 2018 GMT
        Subject: O=NodeOPCUA, CN=NodeOPCUA
        Subject Public Key Info:
            Public Key Algorithm: rsaEncryption
            RSA Public Key: (1024 bit)
                Modulus (1024 bit):
                    00:c6:1b:d7:0b:23:73:59:90:01:e8:ab:60:98:da:
                    6d:a8:b2:aa:22:f4:2c:12:dd:e3:0b:29:31:0c:ad:
                    44:f8:83:a8:0f:fc:4c:50:24:d4:2d:d5:74:6f:73:
                    40:00:20:96:6a:d7:76:ef:7e:be:3b:b2:98:ac:3d:
                    6f:99:90:50:12:71:3a:6d:4c:22:42:10:ec:39:81:
                    fa:dd:9d:da:df:26:6a:2a:ba:02:c7:9d:5e:d2:4b:
                    ad:c2:bf:d7:af:28:85:41:64:ba:a0:53:bb:73:db:
                    ca:97:4e:f8:85:ca:b9:96:bf:79:37:80:75:be:0d:
                    9b:15:88:bc:ce:f2:c4:38:a3
                Exponent: 65537 (0x10001)
        X509v3 extensions:
            X509v3 Basic Constraints: critical
                CA:FALSE
            X509v3 Subject Key Identifier: 
                7B:B1:9B:11:1C:6D:B7:01:A7:66:32:CC:A0:35:96:54:87:17:B6:3C
            X509v3 Authority Key Identifier: 
                keyid:77:9B:44:5F:3A:C0:AD:26:EF:E1:9D:BA:B2:25:FC:90:0F:5D:59:77
                DirName:/C=FR/ST=IDF/L=Paris/O=Fake CA for Test/CN=NodeOPCUA
                serial:B9:27:C6:02:5B:D1:34:0B

            X509v3 Subject Alternative Name: 
                URI:urn:localhost:NodeOPCUA-DiscoveryServer, DNS:localhost, DNS:localhost
            Netscape Comment: 
                OpenSSL Generated Certificate
            X509v3 Key Usage: critical
                Digital Signature, Non Repudiation, Key Encipherment, Data Encipherment, Key Agreement, Certificate Sign
            X509v3 Extended Key Usage: critical
                TLS Web Server Authentication, TLS Web Client Authentication
    Signature Algorithm: sha256WithRSAEncryption
        bb:39:d9:0b:9c:fb:38:36:d7:51:18:d6:c2:20:2b:83:70:8a:
        93:0d:24:ac:97:bd:f0:0b:cc:f8:0c:52:90:f8:95:ab:21:28:
        3b:dc:6b:4d:8e:44:78:e8:54:6e:af:4f:98:62:5e:65:e7:19:
        46:00:51:9e:71:f0:e7:76:27:01:82:8b:e8:1f:da:81:30:58:
        9c:61:e3:b9:a3:5f:19:db:0e:99:9a:14:e5:7f:6c:19:31:9f:
        ca:a5:5b:70:de:ea:98:b0:74:f7:66:74:08:7e:d7:ef:93:1f:
        49:a6:52:6d:b3:c8:2a:92:fa:62:9f:b7:93:c7:87:0b:36:1b:
        62:05:b7:79:47:12:0e:91:4d:34:08:bd:07:94:7f:9a:57:58:
        2c:59:0e:23:27:da:3c:bb:70:9f:11:f3:7f:b4:c3:a7:ba:28:
        bd:1d:fa:be:43:54:9b:0f:20:e8:43:da:c2:8c:de:73:54:38:
        98:03:bf:6a:5d:83:00:90:ee:57:57:6b:70:03:52:31:39:b0:
        34:a0:75:c8:d8:2f:ae:ff:ef:5e:1f:0b:63:8d:37:1f:0c:00:
        f1:e2:40:5d:20:57:f4:df:8a:c1:5e:fe:dc:4f:2a:e6:d1:ef:
        c3:27:67:50:4d:71:8f:35:0e:47:17:ee:ee:08:c1:05:62:7a:
        27:52:fc:12
-----BEGIN CERTIFICATE-----
MIID5jCCAs6gAwIBAgICEAgwDQYJKoZIhvcNAQELBQAwWjELMAkGA1UEBhMCRlIx
DDAKBgNVBAgTA0lERjEOMAwGA1UEBxMFUGFyaXMxGTAXBgNVBAoTEEZha2UgQ0Eg
Zm9yIFRlc3QxEjAQBgNVBAMTCU5vZGVPUENVQTAeFw0xNzA0MTEwOTEwMzVaFw0x
ODA0MTEwOTEwMzVaMCgxEjAQBgNVBAoTCU5vZGVPUENVQTESMBAGA1UEAxMJTm9k
ZU9QQ1VBMIGfMA0GCSqGSIb3DQEBAQUAA4GNADCBiQKBgQDGG9cLI3NZkAHoq2CY
2m2osqoi9CwS3eMLKTEMrUT4g6gP/ExQJNQt1XRvc0AAIJZq13bvfr47spisPW+Z
kFAScTptTCJCEOw5gfrdndrfJmoqugLHnV7SS63Cv9evKIVBZLqgU7tz28qXTviF
yrmWv3k3gHW+DZsViLzO8sQ4owIDAQABo4IBajCCAWYwDAYDVR0TAQH/BAIwADAd
BgNVHQ4EFgQUe7GbERxttwGnZjLMoDWWVIcXtjwwgYwGA1UdIwSBhDCBgYAUd5tE
XzrArSbv4Z26siX8kA9dWXehXqRcMFoxCzAJBgNVBAYTAkZSMQwwCgYDVQQIEwNJ
REYxDjAMBgNVBAcTBVBhcmlzMRkwFwYDVQQKExBGYWtlIENBIGZvciBUZXN0MRIw
EAYDVQQDEwlOb2RlT1BDVUGCCQC5J8YCW9E0CzBIBgNVHREEQTA/hid1cm46bG9j
YWxob3N0Ok5vZGVPUENVQS1EaXNjb3ZlcnlTZXJ2ZXKCCWxvY2FsaG9zdIIJbG9j
YWxob3N0MCwGCWCGSAGG+EIBDQQfFh1PcGVuU1NMIEdlbmVyYXRlZCBDZXJ0aWZp
Y2F0ZTAOBgNVHQ8BAf8EBAMCAvwwIAYDVR0lAQH/BBYwFAYIKwYBBQUHAwEGCCsG
AQUFBwMCMA0GCSqGSIb3DQEBCwUAA4IBAQC7OdkLnPs4NtdRGNbCICuDcIqTDSSs
l73wC8z4DFKQ+JWrISg73GtNjkR46FRur0+YYl5l5xlGAFGecfDndicBgovoH9qB
MFicYeO5o18Z2w6ZmhTlf2wZMZ/KpVtw3uqYsHT3ZnQIftfvkx9JplJts8gqkvpi
n7eTx4cLNhtiBbd5RxIOkU00CL0HlH+aV1gsWQ4jJ9o8u3CfEfN/tMOnuii9Hfq+
Q1SbDyDoQ9rCjN5zVDiYA79qXYMAkO5XV2twA1IxObA0oHXI2C+u/+9eHwtjjTcf
DADx4kBdIFf034rBXv7cTyrm0e/DJ2dQTXGPNQ5HF+7uCMEFYnonUvwS
-----END CERTIFICATE-----
