Certificate:
    Data:
        Version: 3 (0x2)
        Serial Number: 4105 (0x1009)
        Signature Algorithm: sha256WithRSAEncryption
        Issuer: C=FR, ST=IDF, L=Paris, O=Fake CA for Test, CN=NodeOPCUA
        Validity
            Not Before: Apr 11 09:10:35 2017 GMT
            Not After : Apr 11 09:10:35 2018 GMT
        Subject: O=NodeOPCUA, CN=NodeOPCUA
        Subject Public Key Info:
            Public Key Algorithm: rsaEncryption
            RSA Public Key: (2048 bit)
                Modulus (2048 bit):
                    00:cc:b7:22:82:a6:a9:7d:bb:9e:11:a6:2e:db:f9:
                    9a:fe:f9:60:95:f5:b0:ee:e6:90:88:06:c7:6f:4f:
                    ee:23:eb:38:fe:1d:92:94:9b:b9:e8:9c:c7:26:ab:
                    2b:eb:4a:8a:72:8d:c6:0d:e3:2a:ef:5e:f1:8d:e1:
                    62:eb:4f:03:a0:c0:d6:f1:ff:e1:a0:51:01:e3:60:
                    df:4a:d8:35:45:32:3f:96:75:a1:c3:54:de:62:99:
                    31:31:64:e4:63:4e:79:f9:0a:01:2d:47:dd:50:82:
                    21:0c:17:00:9d:56:20:71:af:2a:90:94:1f:71:53:
                    eb:3c:f2:e0:c5:01:72:f0:5b:65:bd:ec:8d:17:aa:
                    c3:7d:24:95:77:95:0d:72:21:2e:23:4f:73:38:73:
                    c4:a9:99:c2:75:6b:09:01:37:f9:bf:87:70:d4:dc:
                    b7:91:8a:10:aa:a8:e3:26:be:a0:26:15:2a:0a:d9:
                    b3:d1:6d:42:44:de:06:3a:89:1c:cc:dc:ae:ff:11:
                    4f:b9:64:74:31:3e:d7:51:29:2b:83:41:1c:e8:a7:
                    31:74:49:7e:de:97:72:44:15:c6:d7:bb:59:09:05:
                    78:72:46:7c:5b:89:21:75:e3:c0:03:0e:e9:7f:24:
                    62:18:fe:f9:7b:fc:39:97:81:74:10:51:7c:23:1d:
                    38:8d
                Exponent: 65537 (0x10001)
        X509v3 extensions:
            X509v3 Basic Constraints: critical
                CA:FALSE
            X509v3 Subject Key Identifier: 
                90:18:9B:30:89:7B:BA:3A:29:09:6B:4A:58:CF:1D:AA:FF:7D:4F:88
            X509v3 Authority Key Identifier: 
                keyid:77:9B:44:5F:3A:C0:AD:26:EF:E1:9D:BA:B2:25:FC:90:0F:5D:59:77
                DirName:/C=FR/ST=IDF/L=Paris/O=Fake CA for Test/CN=NodeOPCUA
                serial:B9:27:C6:02:5B:D1:34:0B

            X509v3 Subject Alternative Name: 
                URI:urn:localhost:NodeOPCUA-DiscoveryServer, DNS:localhost, DNS:localhost
            Netscape Comment: 
                OpenSSL Generated Certificate
            X509v3 Key Usage: critical
                Digital Signature, Non Repudiation, Key Encipherment, Data Encipherment, Key Agreement, Certificate Sign
            X509v3 Extended Key Usage: critical
                TLS Web Server Authentication, TLS Web Client Authentication
    Signature Algorithm: sha256WithRSAEncryption
        7a:8f:7c:b6:f3:38:06:45:42:93:7a:a4:1a:15:cc:0b:0a:ed:
        4f:af:c8:e6:0f:0a:a0:17:21:5e:e8:62:03:7e:a0:05:b3:1a:
        72:33:be:02:7b:e2:b7:19:22:e6:0f:c5:50:f3:b1:2f:bb:94:
        64:63:41:1c:7e:49:fe:08:e7:52:b9:01:af:5b:9c:44:58:3c:
        db:a1:a8:45:f7:56:43:c3:ce:89:48:50:c9:e1:19:f3:72:b1:
        55:e4:fb:ec:5f:37:9d:c8:e4:48:9a:83:e2:ef:d2:00:d8:7c:
        27:e1:b8:2d:b8:11:17:ed:93:95:18:33:9b:80:64:29:ed:3a:
        1b:a5:05:3f:a9:3c:5f:ee:26:4b:f5:45:e5:f4:58:b7:0b:31:
        cb:dd:09:1b:a3:18:9d:e0:17:fd:1d:6e:d9:b9:13:07:18:86:
        65:1b:c5:4f:a1:14:b5:eb:7a:59:e7:9a:17:09:43:5a:d4:7f:
        37:f0:36:e2:d7:b6:84:21:e8:57:29:de:6c:61:e4:da:1f:56:
        b6:59:a7:27:61:a2:58:54:d4:1f:c2:03:d7:d8:0e:fd:8c:4f:
        03:69:37:af:90:0f:8a:2e:23:43:b5:d8:f2:45:73:46:60:b5:
        dc:3d:05:a4:5e:b1:e7:bc:e7:4f:47:d8:29:b5:5b:0c:ca:3b:
        ed:6e:57:f2
-----BEGIN CERTIFICATE-----
MIIEajCCA1KgAwIBAgICEAkwDQYJKoZIhvcNAQELBQAwWjELMAkGA1UEBhMCRlIx
DDAKBgNVBAgTA0lERjEOMAwGA1UEBxMFUGFyaXMxGTAXBgNVBAoTEEZha2UgQ0Eg
Zm9yIFRlc3QxEjAQBgNVBAMTCU5vZGVPUENVQTAeFw0xNzA0MTEwOTEwMzVaFw0x
ODA0MTEwOTEwMzVaMCgxEjAQBgNVBAoTCU5vZGVPUENVQTESMBAGA1UEAxMJTm9k
ZU9QQ1VBMIIBIjANBgkqhkiG9w0BAQEFAAOCAQ8AMIIBCgKCAQEAzLcigqapfbue
EaYu2/ma/vlglfWw7uaQiAbHb0/uI+s4/h2SlJu56JzHJqsr60qKco3GDeMq717x
jeFi608DoMDW8f/hoFEB42DfStg1RTI/lnWhw1TeYpkxMWTkY055+QoBLUfdUIIh
DBcAnVYgca8qkJQfcVPrPPLgxQFy8FtlveyNF6rDfSSVd5UNciEuI09zOHPEqZnC
dWsJATf5v4dw1Ny3kYoQqqjjJr6gJhUqCtmz0W1CRN4GOokczNyu/xFPuWR0MT7X
USkrg0Ec6KcxdEl+3pdyRBXG17tZCQV4ckZ8W4khdePAAw7pfyRiGP75e/w5l4F0
EFF8Ix04jQIDAQABo4IBajCCAWYwDAYDVR0TAQH/BAIwADAdBgNVHQ4EFgQUkBib
MIl7ujopCWtKWM8dqv99T4gwgYwGA1UdIwSBhDCBgYAUd5tEXzrArSbv4Z26siX8
kA9dWXehXqRcMFoxCzAJBgNVBAYTAkZSMQwwCgYDVQQIEwNJREYxDjAMBgNVBAcT
BVBhcmlzMRkwFwYDVQQKExBGYWtlIENBIGZvciBUZXN0MRIwEAYDVQQDEwlOb2Rl
T1BDVUGCCQC5J8YCW9E0CzBIBgNVHREEQTA/hid1cm46bG9jYWxob3N0Ok5vZGVP
UENVQS1EaXNjb3ZlcnlTZXJ2ZXKCCWxvY2FsaG9zdIIJbG9jYWxob3N0MCwGCWCG
SAGG+EIBDQQfFh1PcGVuU1NMIEdlbmVyYXRlZCBDZXJ0aWZpY2F0ZTAOBgNVHQ8B
Af8EBAMCAvwwIAYDVR0lAQH/BBYwFAYIKwYBBQUHAwEGCCsGAQUFBwMCMA0GCSqG
SIb3DQEBCwUAA4IBAQB6j3y28zgGRUKTeqQaFcwLCu1Pr8jmDwqgFyFe6GIDfqAF
sxpyM74Ce+K3GSLmD8VQ87Evu5RkY0Ecfkn+COdSuQGvW5xEWDzboahF91ZDw86J
SFDJ4RnzcrFV5PvsXzedyORImoPi79IA2Hwn4bgtuBEX7ZOVGDObgGQp7TobpQU/
qTxf7iZL9UXl9Fi3CzHL3Qkboxid4Bf9HW7ZuRMHGIZlG8VPoRS163pZ55oXCUNa
1H838Dbi17aEIehXKd5sYeTaH1a2WacnYaJYVNQfwgPX2A79jE8DaTevkA+KLiND
tdjyRXNGYLXcPQWkXrHnvOdPR9gptVsMyjvtblfy
-----END CERTIFICATE-----
