Certificate:
    Data:
        Version: 3 (0x2)
        Serial Number: 4107 (0x100b)
        Signature Algorithm: sha256WithRSAEncryption
        Issuer: O=NodeOPCUA, CN=NodeOPCUA
        Validity
            Not Before: Apr 11 09:10:35 2017 GMT
            Not After : Apr 11 09:10:35 2018 GMT
        Subject: O=NodeOPCUA, CN=NodeOPCUA
        Subject Public Key Info:
            Public Key Algorithm: rsaEncryption
            RSA Public Key: (2048 bit)
                Modulus (2048 bit):
                    00:cc:b7:22:82:a6:a9:7d:bb:9e:11:a6:2e:db:f9:
                    9a:fe:f9:60:95:f5:b0:ee:e6:90:88:06:c7:6f:4f:
                    ee:23:eb:38:fe:1d:92:94:9b:b9:e8:9c:c7:26:ab:
                    2b:eb:4a:8a:72:8d:c6:0d:e3:2a:ef:5e:f1:8d:e1:
                    62:eb:4f:03:a0:c0:d6:f1:ff:e1:a0:51:01:e3:60:
                    df:4a:d8:35:45:32:3f:96:75:a1:c3:54:de:62:99:
                    31:31:64:e4:63:4e:79:f9:0a:01:2d:47:dd:50:82:
                    21:0c:17:00:9d:56:20:71:af:2a:90:94:1f:71:53:
                    eb:3c:f2:e0:c5:01:72:f0:5b:65:bd:ec:8d:17:aa:
                    c3:7d:24:95:77:95:0d:72:21:2e:23:4f:73:38:73:
                    c4:a9:99:c2:75:6b:09:01:37:f9:bf:87:70:d4:dc:
                    b7:91:8a:10:aa:a8:e3:26:be:a0:26:15:2a:0a:d9:
                    b3:d1:6d:42:44:de:06:3a:89:1c:cc:dc:ae:ff:11:
                    4f:b9:64:74:31:3e:d7:51:29:2b:83:41:1c:e8:a7:
                    31:74:49:7e:de:97:72:44:15:c6:d7:bb:59:09:05:
                    78:72:46:7c:5b:89:21:75:e3:c0:03:0e:e9:7f:24:
                    62:18:fe:f9:7b:fc:39:97:81:74:10:51:7c:23:1d:
                    38:8d
                Exponent: 65537 (0x10001)
        X509v3 extensions:
            X509v3 Basic Constraints: critical
                CA:FALSE
            X509v3 Subject Key Identifier: 
                90:18:9B:30:89:7B:BA:3A:29:09:6B:4A:58:CF:1D:AA:FF:7D:4F:88
            X509v3 Authority Key Identifier: 
                keyid:90:18:9B:30:89:7B:BA:3A:29:09:6B:4A:58:CF:1D:AA:FF:7D:4F:88
                DirName:/O=NodeOPCUA/CN=NodeOPCUA
                serial:10:0B

            X509v3 Subject Alternative Name: 
                URI:urn:localhost:NodeOPCUA-DiscoveryServer, DNS:localhost, DNS:localhost
            Netscape Comment: 
                OpenSSL Generated Certificate
            X509v3 Key Usage: critical
                Digital Signature, Non Repudiation, Key Encipherment, Data Encipherment, Key Agreement, Certificate Sign
            X509v3 Extended Key Usage: critical
                TLS Web Server Authentication, TLS Web Client Authentication
    Signature Algorithm: sha256WithRSAEncryption
        30:4e:46:0e:60:fd:3c:82:d4:3b:61:80:de:f8:ad:aa:30:1b:
        93:a1:0a:65:6b:48:1d:3e:80:2f:ff:e6:56:dc:3e:83:d7:41:
        d7:e9:45:ed:e1:c5:be:c5:4f:cf:9f:84:fe:ed:be:98:9f:ee:
        85:08:0f:65:59:37:0d:2c:0f:bf:91:a5:5c:23:00:8f:c6:5a:
        7f:17:16:64:24:63:9c:b8:a3:19:40:96:99:02:f2:1a:09:9e:
        96:d2:32:25:1c:8f:5b:a3:d3:eb:9f:2b:f6:44:bb:21:4b:2f:
        ce:a0:e6:1e:e3:89:3f:4d:61:ce:75:e4:a9:10:47:13:c3:79:
        2b:de:12:11:c5:51:87:21:60:bb:13:1e:f7:6a:63:de:4c:6f:
        95:63:d5:88:a8:70:cb:98:ea:3d:06:1c:7a:ea:ed:3e:2e:ee:
        ee:84:88:6e:71:53:64:ee:93:d7:c0:50:4d:d7:f6:53:2f:d4:
        73:a6:7c:bb:d6:f7:ad:ee:dd:d9:70:96:01:c0:7b:2b:c6:c4:
        c2:24:00:11:64:b6:a5:2f:d7:93:16:e0:9e:2d:62:29:48:97:
        87:44:77:ab:2d:e6:a7:02:c6:f3:5b:74:2b:dc:7b:24:b0:28:
        73:fe:96:92:00:55:1d:65:21:f3:39:8f:23:79:ef:7e:f8:4f:
        15:67:22:98
-----BEGIN CERTIFICATE-----
MIID/DCCAuSgAwIBAgICEAswDQYJKoZIhvcNAQELBQAwKDESMBAGA1UEChMJTm9k
ZU9QQ1VBMRIwEAYDVQQDEwlOb2RlT1BDVUEwHhcNMTcwNDExMDkxMDM1WhcNMTgw
NDExMDkxMDM1WjAoMRIwEAYDVQQKEwlOb2RlT1BDVUExEjAQBgNVBAMTCU5vZGVP
UENVQTCCASIwDQYJKoZIhvcNAQEBBQADggEPADCCAQoCggEBAMy3IoKmqX27nhGm
Ltv5mv75YJX1sO7mkIgGx29P7iPrOP4dkpSbueicxyarK+tKinKNxg3jKu9e8Y3h
YutPA6DA1vH/4aBRAeNg30rYNUUyP5Z1ocNU3mKZMTFk5GNOefkKAS1H3VCCIQwX
AJ1WIHGvKpCUH3FT6zzy4MUBcvBbZb3sjReqw30klXeVDXIhLiNPczhzxKmZwnVr
CQE3+b+HcNTct5GKEKqo4ya+oCYVKgrZs9FtQkTeBjqJHMzcrv8RT7lkdDE+11Ep
K4NBHOinMXRJft6XckQVxte7WQkFeHJGfFuJIXXjwAMO6X8kYhj++Xv8OZeBdBBR
fCMdOI0CAwEAAaOCAS4wggEqMAwGA1UdEwEB/wQCMAAwHQYDVR0OBBYEFJAYmzCJ
e7o6KQlrSljPHar/fU+IMFEGA1UdIwRKMEiAFJAYmzCJe7o6KQlrSljPHar/fU+I
oSykKjAoMRIwEAYDVQQKEwlOb2RlT1BDVUExEjAQBgNVBAMTCU5vZGVPUENVQYIC
EAswSAYDVR0RBEEwP4YndXJuOmxvY2FsaG9zdDpOb2RlT1BDVUEtRGlzY292ZXJ5
U2VydmVygglsb2NhbGhvc3SCCWxvY2FsaG9zdDAsBglghkgBhvhCAQ0EHxYdT3Bl
blNTTCBHZW5lcmF0ZWQgQ2VydGlmaWNhdGUwDgYDVR0PAQH/BAQDAgL8MCAGA1Ud
JQEB/wQWMBQGCCsGAQUFBwMBBggrBgEFBQcDAjANBgkqhkiG9w0BAQsFAAOCAQEA
ME5GDmD9PILUO2GA3vitqjAbk6EKZWtIHT6AL//mVtw+g9dB1+lF7eHFvsVPz5+E
/u2+mJ/uhQgPZVk3DSwPv5GlXCMAj8ZafxcWZCRjnLijGUCWmQLyGgmeltIyJRyP
W6PT658r9kS7IUsvzqDmHuOJP01hznXkqRBHE8N5K94SEcVRhyFguxMe92pj3kxv
lWPViKhwy5jqPQYceurtPi7u7oSIbnFTZO6T18BQTdf2Uy/Uc6Z8u9b3re7d2XCW
AcB7K8bEwiQAEWS2pS/Xkxbgni1iKUiXh0R3qy3mpwLG81t0K9x7JLAoc/6WkgBV
HWUh8zmPI3nvfvhPFWcimA==
-----END CERTIFICATE-----
