Certificate:
    Data:
        Version: 3 (0x2)
        Serial Number: 4099 (0x1003)
        Signature Algorithm: sha256WithRSAEncryption
        Issuer: O=NodeOPCUA, CN=NodeOPCUA
        Validity
            Not Before: May  1 13:27:44 2017 GMT
            Not After : May  1 13:27:44 2018 GMT
        Subject: O=NodeOPCUA, CN=NodeOPCUA
        Subject Public Key Info:
            Public Key Algorithm: rsaEncryption
            RSA Public Key: (2048 bit)
                Modulus (2048 bit):
                    00:d2:df:12:cf:bd:44:b1:4b:22:c9:34:b9:0c:ad:
                    8a:db:98:46:61:16:1d:fd:7b:4e:b8:34:67:f1:fe:
                    73:b0:5c:45:be:19:c6:69:13:8e:35:99:51:2a:00:
                    11:60:64:6d:e7:32:fe:d2:be:67:79:35:6b:9d:21:
                    ad:08:41:92:56:83:55:63:fe:fd:af:73:0b:3e:76:
                    1d:d3:01:5c:fd:2f:11:34:4b:fb:1c:46:38:4a:be:
                    eb:92:62:b9:97:f2:de:c9:75:66:55:52:3e:8a:56:
                    f3:a5:16:c6:c3:84:48:28:3a:80:8b:c9:ee:b3:70:
                    c4:14:c8:b4:ea:6a:05:0b:de:58:3e:f7:bc:d6:8f:
                    8f:e7:f5:63:3a:c1:53:8b:bf:6d:09:8a:71:ef:b7:
                    a0:80:63:f2:d4:93:02:e1:53:03:1c:08:9e:1e:bf:
                    b4:02:de:69:85:d3:42:a4:24:93:69:7e:1c:4e:3c:
                    4f:53:5a:3e:90:4e:4c:d5:d1:26:02:8e:3c:75:5b:
                    09:28:36:00:27:6d:30:fc:05:d3:d7:f8:17:89:24:
                    a5:65:db:b4:26:ae:9a:6e:e9:0e:ff:4b:17:ea:cb:
                    16:d7:e9:8c:35:0f:b7:ee:52:5e:21:63:aa:33:fa:
                    18:24:bc:a1:5e:4a:a7:79:92:30:93:bd:f9:58:a4:
                    1e:fd
                Exponent: 65537 (0x10001)
        X509v3 extensions:
            X509v3 Basic Constraints: critical
                CA:FALSE
            X509v3 Subject Key Identifier: 
                A8:9C:28:6C:16:B4:B6:FC:57:B1:63:9C:77:E0:B4:B2:42:2A:FD:7E
            X509v3 Authority Key Identifier: 
                keyid:A8:9C:28:6C:16:B4:B6:FC:57:B1:63:9C:77:E0:B4:B2:42:2A:FD:7E
                DirName:/O=NodeOPCUA/CN=NodeOPCUA
                serial:10:03

            X509v3 Subject Alternative Name: 
                URI:urn:localhost:NodeOPCUA-Client, DNS:localhost, DNS:localhost
            Netscape Comment: 
                OpenSSL Generated Certificate
            X509v3 Key Usage: critical
                Digital Signature, Non Repudiation, Key Encipherment, Data Encipherment, Key Agreement, Certificate Sign
            X509v3 Extended Key Usage: critical
                TLS Web Server Authentication, TLS Web Client Authentication
    Signature Algorithm: sha256WithRSAEncryption
        71:fe:f9:bc:2a:66:88:b7:34:de:13:de:3b:81:df:b2:e6:72:
        05:18:81:14:61:3a:21:4c:4a:32:4a:01:8b:e7:71:37:84:2c:
        8a:3f:17:81:bd:3c:c5:6d:ff:ea:1d:71:73:c0:8e:e3:52:79:
        50:6d:8b:19:42:59:28:b2:22:6c:4d:64:de:0d:61:72:3c:0a:
        a2:f3:a7:98:64:e0:c8:ed:05:ca:41:bd:1c:b9:f2:c3:dc:3b:
        94:8b:a5:72:ca:30:0d:31:9b:aa:48:19:92:a8:6e:d9:79:02:
        60:d2:c3:c3:df:be:8e:bf:92:23:c8:37:3b:bf:b1:7a:8d:b1:
        c3:11:70:cd:db:1c:e4:59:a9:96:ee:d0:19:56:32:87:26:f8:
        c3:9e:d3:88:5e:18:27:41:64:33:f8:08:f7:e6:45:9f:d7:12:
        19:80:30:e4:b0:ae:76:11:ed:bc:8a:82:1a:cc:dd:f8:99:05:
        e4:9f:b5:fc:63:24:73:d7:c3:c2:43:4c:05:53:b4:b4:d2:d7:
        87:e7:81:a1:12:a4:54:4c:aa:db:99:ec:fe:33:c1:85:ac:f3:
        f6:d7:ef:35:42:4c:f8:53:16:99:c2:22:22:19:c0:68:d0:74:
        b3:24:09:8c:16:97:e6:60:41:01:63:34:48:e4:9a:fd:38:07:
        0f:55:10:55
-----BEGIN CERTIFICATE-----
MIID8zCCAtugAwIBAgICEAMwDQYJKoZIhvcNAQELBQAwKDESMBAGA1UEChMJTm9k
ZU9QQ1VBMRIwEAYDVQQDEwlOb2RlT1BDVUEwHhcNMTcwNTAxMTMyNzQ0WhcNMTgw
NTAxMTMyNzQ0WjAoMRIwEAYDVQQKEwlOb2RlT1BDVUExEjAQBgNVBAMTCU5vZGVP
UENVQTCCASIwDQYJKoZIhvcNAQEBBQADggEPADCCAQoCggEBANLfEs+9RLFLIsk0
uQytituYRmEWHf17Trg0Z/H+c7BcRb4ZxmkTjjWZUSoAEWBkbecy/tK+Z3k1a50h
rQhBklaDVWP+/a9zCz52HdMBXP0vETRL+xxGOEq+65JiuZfy3sl1ZlVSPopW86UW
xsOESCg6gIvJ7rNwxBTItOpqBQveWD73vNaPj+f1YzrBU4u/bQmKce+3oIBj8tST
AuFTAxwInh6/tALeaYXTQqQkk2l+HE48T1NaPpBOTNXRJgKOPHVbCSg2ACdtMPwF
09f4F4kkpWXbtCaumm7pDv9LF+rLFtfpjDUPt+5SXiFjqjP6GCS8oV5Kp3mSMJO9
+VikHv0CAwEAAaOCASUwggEhMAwGA1UdEwEB/wQCMAAwHQYDVR0OBBYEFKicKGwW
tLb8V7FjnHfgtLJCKv1+MFEGA1UdIwRKMEiAFKicKGwWtLb8V7FjnHfgtLJCKv1+
oSykKjAoMRIwEAYDVQQKEwlOb2RlT1BDVUExEjAQBgNVBAMTCU5vZGVPUENVQYIC
EAMwPwYDVR0RBDgwNoYedXJuOmxvY2FsaG9zdDpOb2RlT1BDVUEtQ2xpZW50ggls
b2NhbGhvc3SCCWxvY2FsaG9zdDAsBglghkgBhvhCAQ0EHxYdT3BlblNTTCBHZW5l
cmF0ZWQgQ2VydGlmaWNhdGUwDgYDVR0PAQH/BAQDAgL8MCAGA1UdJQEB/wQWMBQG
CCsGAQUFBwMBBggrBgEFBQcDAjANBgkqhkiG9w0BAQsFAAOCAQEAcf75vCpmiLc0
3hPeO4HfsuZyBRiBFGE6IUxKMkoBi+dxN4Qsij8Xgb08xW3/6h1xc8CO41J5UG2L
GUJZKLIibE1k3g1hcjwKovOnmGTgyO0FykG9HLnyw9w7lIulcsowDTGbqkgZkqhu
2XkCYNLDw9++jr+SI8g3O7+xeo2xwxFwzdsc5Fmplu7QGVYyhyb4w57TiF4YJ0Fk
M/gI9+ZFn9cSGYAw5LCudhHtvIqCGszd+JkF5J+1/GMkc9fDwkNMBVO0tNLXh+eB
oRKkVEyq25ns/jPBhazz9tfvNUJM+FMWmcIiIhnAaNB0syQJjBaX5mBBAWM0SOSa
/TgHD1UQVQ==
-----END CERTIFICATE-----
