Certificate:
    Data:
        Version: 3 (0x2)
        Serial Number: 4100 (0x1004)
        Signature Algorithm: sha256WithRSAEncryption
        Issuer: C=FR, ST=IDF, L=Paris, O=Local NODE-OPCUA Certificate Authority, CN=NodeOPCUA-CA
        Validity
            Not Before: May  1 13:27:44 2017 GMT
            Not After : May  1 13:27:44 2018 GMT
        Subject: C=FR, O=NodeOPCUA, CN=NodeOPCUA
        Subject Public Key Info:
            Public Key Algorithm: rsaEncryption
            RSA Public Key: (1024 bit)
                Modulus (1024 bit):
                    00:bd:04:06:71:34:b1:11:e5:1c:30:49:98:43:f4:
                    a8:6c:65:a6:35:0e:e2:f2:e4:fd:26:4d:c9:b8:70:
                    8d:9d:e2:fc:6b:15:9d:d5:8a:06:0f:2d:51:79:5e:
                    9b:a1:a9:8c:60:03:27:1e:45:6b:bc:60:dc:a5:b7:
                    77:3e:57:9e:db:93:cf:0f:d1:bf:ee:6d:50:d2:65:
                    7e:bc:a4:dc:86:cf:cf:f8:76:b7:88:78:1c:f8:54:
                    7c:1b:ee:f9:68:ef:08:a9:af:fa:f6:90:d0:2f:58:
                    3d:9b:68:17:51:2e:f2:3f:42:40:c5:c8:24:42:c5:
                    3a:f1:c3:de:26:af:dc:a6:f3
                Exponent: 65537 (0x10001)
        X509v3 extensions:
            X509v3 Basic Constraints: critical
                CA:FALSE
            X509v3 Subject Key Identifier: 
                4A:E3:85:C7:DF:2D:DF:65:96:03:77:20:CA:A7:C0:94:01:35:34:B6
            X509v3 Authority Key Identifier: 
                keyid:8A:FF:87:2D:B2:76:79:F7:6F:3C:79:77:5B:49:6C:9C:49:03:E6:A4
                DirName:/C=FR/ST=IDF/L=Paris/O=Local NODE-OPCUA Certificate Authority/CN=NodeOPCUA-CA
                serial:D6:7C:D6:E6:02:18:3C:DA

            X509v3 Subject Alternative Name: 
                URI:urn:localhost:NodeOPCUA-Server, DNS:localhost, DNS:localhost
            Netscape Comment: 
                OpenSSL Generated Certificate
            X509v3 Key Usage: critical
                Digital Signature, Non Repudiation, Key Encipherment, Data Encipherment, Key Agreement, Certificate Sign
            X509v3 Extended Key Usage: critical
                TLS Web Server Authentication, TLS Web Client Authentication
    Signature Algorithm: sha256WithRSAEncryption
        0f:bb:cb:b8:8a:26:c8:23:51:34:da:d9:97:21:5f:e2:4d:21:
        42:d4:6e:2d:08:3e:54:d1:fe:45:6f:92:71:5e:94:5e:6f:b3:
        c7:c8:55:dc:8f:23:2a:18:ab:dc:df:a6:97:d3:4a:8f:52:3c:
        38:7e:be:49:88:5a:b2:35:69:aa:88:52:cb:7e:e0:7e:13:c3:
        0f:a7:14:05:8d:51:ac:eb:91:d8:a7:e7:c5:18:e2:c8:01:e7:
        c9:26:b5:00:99:88:81:74:ec:43:52:22:19:f4:b6:ef:ce:d5:
        e5:5f:00:f2:4d:75:73:58:e8:de:96:1c:41:39:ae:8f:7c:14:
        27:21:2b:26:c1:47:af:42:e8:82:0d:45:b9:2f:58:fb:28:2b:
        50:12:ac:00:64:d6:9b:85:11:c6:4c:e8:a7:28:7d:f1:62:98:
        2d:21:71:23:44:c4:d4:29:5e:ce:6d:43:56:d0:a7:2c:02:3f:
        24:c2:dc:99:d8:64:15:d9:e2:0c:67:8a:3c:27:75:89:a9:9d:
        2e:9a:4b:73:8f:66:f7:20:4c:b1:b8:04:2f:0a:d9:37:6d:08:
        fb:ad:d8:dc:b9:f8:00:d7:34:46:c9:9a:58:a1:0a:28:0d:51:
        bb:b4:dc:86:41:63:38:22:ac:cd:31:a5:c2:92:ee:79:9e:06:
        3c:2c:dc:06
-----BEGIN CERTIFICATE-----
MIIEHDCCAwSgAwIBAgICEAQwDQYJKoZIhvcNAQELBQAwczELMAkGA1UEBhMCRlIx
DDAKBgNVBAgTA0lERjEOMAwGA1UEBxMFUGFyaXMxLzAtBgNVBAoTJkxvY2FsIE5P
REUtT1BDVUEgQ2VydGlmaWNhdGUgQXV0aG9yaXR5MRUwEwYDVQQDEwxOb2RlT1BD
VUEtQ0EwHhcNMTcwNTAxMTMyNzQ0WhcNMTgwNTAxMTMyNzQ0WjA1MQswCQYDVQQG
EwJGUjESMBAGA1UECgwJTm9kZU9QQ1VBMRIwEAYDVQQDDAlOb2RlT1BDVUEwgZ8w
DQYJKoZIhvcNAQEBBQADgY0AMIGJAoGBAL0EBnE0sRHlHDBJmEP0qGxlpjUO4vLk
/SZNybhwjZ3i/GsVndWKBg8tUXlem6GpjGADJx5Fa7xg3KW3dz5XntuTzw/Rv+5t
UNJlfryk3IbPz/h2t4h4HPhUfBvu+WjvCKmv+vaQ0C9YPZtoF1Eu8j9CQMXIJELF
OvHD3iav3KbzAgMBAAGjggF6MIIBdjAMBgNVHRMBAf8EAjAAMB0GA1UdDgQWBBRK
44XH3y3fZZYDdyDKp8CUATU0tjCBpQYDVR0jBIGdMIGagBSK/4ctsnZ59288eXdb
SWycSQPmpKF3pHUwczELMAkGA1UEBhMCRlIxDDAKBgNVBAgTA0lERjEOMAwGA1UE
BxMFUGFyaXMxLzAtBgNVBAoTJkxvY2FsIE5PREUtT1BDVUEgQ2VydGlmaWNhdGUg
QXV0aG9yaXR5MRUwEwYDVQQDEwxOb2RlT1BDVUEtQ0GCCQDWfNbmAhg82jA/BgNV
HREEODA2hh51cm46bG9jYWxob3N0Ok5vZGVPUENVQS1TZXJ2ZXKCCWxvY2FsaG9z
dIIJbG9jYWxob3N0MCwGCWCGSAGG+EIBDQQfFh1PcGVuU1NMIEdlbmVyYXRlZCBD
ZXJ0aWZpY2F0ZTAOBgNVHQ8BAf8EBAMCAvwwIAYDVR0lAQH/BBYwFAYIKwYBBQUH
AwEGCCsGAQUFBwMCMA0GCSqGSIb3DQEBCwUAA4IBAQAPu8u4iibII1E02tmXIV/i
TSFC1G4tCD5U0f5Fb5JxXpReb7PHyFXcjyMqGKvc36aX00qPUjw4fr5JiFqyNWmq
iFLLfuB+E8MPpxQFjVGs65HYp+fFGOLIAefJJrUAmYiBdOxDUiIZ9LbvztXlXwDy
TXVzWOjelhxBOa6PfBQnISsmwUevQuiCDUW5L1j7KCtQEqwAZNabhRHGTOinKH3x
YpgtIXEjRMTUKV7ObUNW0KcsAj8kwtyZ2GQV2eIMZ4o8J3WJqZ0umktzj2b3IEyx
uAQvCtk3bQj7rdjcufgA1zRGyZpYoQooDVG7tNyGQWM4IqzNMaXCku55ngY8LNwG
-----END CERTIFICATE-----
