Certificate:
    Data:
        Version: 3 (0x2)
        Serial Number: 4104 (0x1008)
        Signature Algorithm: sha256WithRSAEncryption
        Issuer: C=FR, ST=IDF, L=Paris, O=Local NODE-OPCUA Certificate Authority, CN=NodeOPCUA-CA
        Validity
            Not Before: May  1 13:27:44 2017 GMT
            Not After : May  1 13:27:44 2018 GMT
        Subject: C=FR, O=NodeOPCUA, CN=NodeOPCUA
        Subject Public Key Info:
            Public Key Algorithm: rsaEncryption
            RSA Public Key: (1024 bit)
                Modulus (1024 bit):
                    00:c0:46:b2:0a:f7:9d:9f:2e:34:f8:d9:ea:ea:03:
                    a8:af:0c:26:f1:48:40:5f:be:75:da:4f:2c:11:d9:
                    96:0b:fe:7a:c6:bd:6f:20:5f:4b:12:e9:8d:ad:12:
                    c3:11:6a:ea:60:24:11:28:8a:57:99:cd:c4:cd:7d:
                    93:a8:b1:67:7c:c2:22:54:68:68:9e:f8:02:96:76:
                    bb:b8:92:00:d9:a5:cd:76:21:37:20:35:f2:6c:c3:
                    44:32:75:fa:ba:8e:88:ee:25:49:9b:14:1b:f1:cf:
                    0f:d2:c6:62:f1:9e:cd:14:d9:ef:96:b0:48:c5:92:
                    fb:e6:e2:ad:1a:20:42:b2:3b
                Exponent: 65537 (0x10001)
        X509v3 extensions:
            X509v3 Basic Constraints: critical
                CA:FALSE
            X509v3 Subject Key Identifier: 
                96:07:22:8A:31:20:F9:42:79:FF:93:DD:DC:28:97:5A:24:B5:4A:EC
            X509v3 Authority Key Identifier: 
                keyid:8A:FF:87:2D:B2:76:79:F7:6F:3C:79:77:5B:49:6C:9C:49:03:E6:A4
                DirName:/C=FR/ST=IDF/L=Paris/O=Local NODE-OPCUA Certificate Authority/CN=NodeOPCUA-CA
                serial:D6:7C:D6:E6:02:18:3C:DA

            X509v3 Subject Alternative Name: 
                URI:urn:localhost:NodeOPCUA-DiscoveryServer, DNS:localhost, DNS:localhost
            Netscape Comment: 
                OpenSSL Generated Certificate
            X509v3 Key Usage: critical
                Digital Signature, Non Repudiation, Key Encipherment, Data Encipherment, Key Agreement, Certificate Sign
            X509v3 Extended Key Usage: critical
                TLS Web Server Authentication, TLS Web Client Authentication
    Signature Algorithm: sha256WithRSAEncryption
        80:01:8f:28:c9:2d:e0:3c:9d:30:77:95:e4:f6:79:c5:36:e0:
        70:29:1a:74:20:16:0d:d9:18:9c:72:78:4f:ab:00:f7:1b:2b:
        af:58:b4:d8:24:9c:1d:6b:5b:d5:59:80:db:5c:de:e6:01:a4:
        f6:77:7f:19:be:57:6d:72:e8:20:e5:77:3a:eb:03:2d:de:a8:
        05:1e:ec:43:8e:4d:ac:af:e6:1e:24:a7:a2:06:96:68:cc:66:
        7e:d7:1e:f9:4b:91:30:f2:c4:67:4f:3d:dd:20:c2:b9:b2:c8:
        5d:a5:4d:91:5b:c7:0c:3e:5a:bd:16:d0:f0:69:0a:de:08:c8:
        55:26:9b:e4:33:47:68:f9:ad:74:f9:88:17:d6:fb:62:aa:ed:
        e4:a2:f7:d5:1d:2c:4b:05:8c:62:d6:8a:71:1a:55:9c:dc:e3:
        14:66:ef:73:b5:51:9d:ed:08:f5:3f:bb:eb:3c:1d:bd:31:a6:
        13:7d:7e:e7:7c:b1:78:9a:b9:1a:6c:ab:46:ac:df:6d:15:11:
        fb:9d:d4:cb:62:dd:2a:5b:75:89:7f:aa:98:77:27:f9:af:6c:
        dd:b9:59:73:c3:85:dc:7e:c0:ed:01:40:7d:b1:18:a9:ab:77:
        45:69:03:eb:eb:c7:72:7a:03:08:98:ec:79:3f:fd:81:87:db:
        f9:87:36:8e
-----BEGIN CERTIFICATE-----
MIIEJTCCAw2gAwIBAgICEAgwDQYJKoZIhvcNAQELBQAwczELMAkGA1UEBhMCRlIx
DDAKBgNVBAgTA0lERjEOMAwGA1UEBxMFUGFyaXMxLzAtBgNVBAoTJkxvY2FsIE5P
REUtT1BDVUEgQ2VydGlmaWNhdGUgQXV0aG9yaXR5MRUwEwYDVQQDEwxOb2RlT1BD
VUEtQ0EwHhcNMTcwNTAxMTMyNzQ0WhcNMTgwNTAxMTMyNzQ0WjA1MQswCQYDVQQG
EwJGUjESMBAGA1UECgwJTm9kZU9QQ1VBMRIwEAYDVQQDDAlOb2RlT1BDVUEwgZ8w
DQYJKoZIhvcNAQEBBQADgY0AMIGJAoGBAMBGsgr3nZ8uNPjZ6uoDqK8MJvFIQF++
ddpPLBHZlgv+esa9byBfSxLpja0SwxFq6mAkESiKV5nNxM19k6ixZ3zCIlRoaJ74
ApZ2u7iSANmlzXYhNyA18mzDRDJ1+rqOiO4lSZsUG/HPD9LGYvGezRTZ75awSMWS
++birRogQrI7AgMBAAGjggGDMIIBfzAMBgNVHRMBAf8EAjAAMB0GA1UdDgQWBBSW
ByKKMSD5Qnn/k93cKJdaJLVK7DCBpQYDVR0jBIGdMIGagBSK/4ctsnZ59288eXdb
SWycSQPmpKF3pHUwczELMAkGA1UEBhMCRlIxDDAKBgNVBAgTA0lERjEOMAwGA1UE
BxMFUGFyaXMxLzAtBgNVBAoTJkxvY2FsIE5PREUtT1BDVUEgQ2VydGlmaWNhdGUg
QXV0aG9yaXR5MRUwEwYDVQQDEwxOb2RlT1BDVUEtQ0GCCQDWfNbmAhg82jBIBgNV
HREEQTA/hid1cm46bG9jYWxob3N0Ok5vZGVPUENVQS1EaXNjb3ZlcnlTZXJ2ZXKC
CWxvY2FsaG9zdIIJbG9jYWxob3N0MCwGCWCGSAGG+EIBDQQfFh1PcGVuU1NMIEdl
bmVyYXRlZCBDZXJ0aWZpY2F0ZTAOBgNVHQ8BAf8EBAMCAvwwIAYDVR0lAQH/BBYw
FAYIKwYBBQUHAwEGCCsGAQUFBwMCMA0GCSqGSIb3DQEBCwUAA4IBAQCAAY8oyS3g
PJ0wd5Xk9nnFNuBwKRp0IBYN2RiccnhPqwD3GyuvWLTYJJwda1vVWYDbXN7mAaT2
d38Zvldtcugg5Xc66wMt3qgFHuxDjk2sr+YeJKeiBpZozGZ+1x75S5Ew8sRnTz3d
IMK5sshdpU2RW8cMPlq9FtDwaQreCMhVJpvkM0do+a10+YgX1vtiqu3kovfVHSxL
BYxi1opxGlWc3OMUZu9ztVGd7Qj1P7vrPB29MaYTfX7nfLF4mrkabKtGrN9tFRH7
ndTLYt0qW3WJf6qYdyf5r2zduVlzw4XcfsDtAUB9sRipq3dFaQPr68dyegMImOx5
P/2Bh9v5hzaO
-----END CERTIFICATE-----
