Certificate Request:
    Data:
        Version: 0 (0x0)
        Subject: C=FR, ST=IDF, L=Paris, O=Fake CA for Test, CN=NodeOPCUA
        Subject Public Key Info:
            Public Key Algorithm: rsaEncryption
            RSA Public Key: (2048 bit)
                Modulus (2048 bit):
                    00:d3:96:61:2c:1d:19:ec:52:8c:64:59:e0:89:75:
                    68:c1:7f:b4:37:ac:bc:55:29:1b:cc:d3:9e:77:03:
                    7e:66:0f:e0:ad:2e:97:d1:db:a3:cd:c9:cc:58:f6:
                    82:29:e7:3c:c2:5b:2e:57:30:4b:9e:d6:75:f2:01:
                    98:ec:ff:3c:ab:56:9e:8c:94:3f:b0:c5:34:3c:10:
                    a3:94:30:32:f1:a2:1a:7f:9b:20:1a:22:00:c7:62:
                    d4:30:41:b1:92:97:be:31:d3:12:d1:80:56:e5:60:
                    12:18:d2:48:27:73:db:8e:d4:e9:c4:b1:0a:c7:24:
                    31:4f:7a:44:f8:e8:88:30:d6:ab:77:e2:64:ba:a1:
                    83:07:a7:bf:be:a5:a3:c8:3b:af:e5:cb:81:05:9d:
                    cd:ae:98:5b:3d:23:8c:c4:0f:10:0c:55:ff:19:83:
                    45:ab:22:99:00:38:64:2b:62:8a:81:d5:1e:b8:c2:
                    c8:72:22:13:5c:df:75:90:62:c8:a4:8c:26:93:2b:
                    2b:8a:3f:59:b5:4d:8e:f9:81:ce:68:bb:72:34:43:
                    07:e9:33:02:d3:76:f5:a7:93:5c:ab:92:46:d7:73:
                    ce:f8:7e:af:91:37:34:68:2e:95:49:1a:6c:3d:ba:
                    4d:c5:c4:94:0c:9f:10:4b:d0:50:b2:5e:89:72:cd:
                    d2:cf
                Exponent: 65537 (0x10001)
        Attributes:
        Requested Extensions:
            X509v3 Basic Constraints: critical
                CA:FALSE
            X509v3 Key Usage: 
                Digital Signature, Non Repudiation, Key Encipherment, Data Encipherment, Key Agreement
            X509v3 Subject Alternative Name: 
                URI:, DNS:, DNS:
            Netscape Comment: 
                CA Generated by Node-OPCUA Certificate utility using openssl
    Signature Algorithm: sha1WithRSAEncryption
        1a:14:06:f9:55:0e:b1:80:4f:e5:a6:a9:fb:2c:38:57:66:47:
        ab:19:b9:9d:4e:bb:a0:8c:7e:52:33:6f:56:32:a5:b5:e8:b5:
        18:bd:93:bc:0c:43:33:3a:35:f2:6f:f0:f0:f0:bd:b7:83:f3:
        70:ae:22:72:4a:47:e7:3e:a3:02:36:97:78:d2:5c:0d:62:29:
        73:e9:6c:bc:6b:a4:44:6a:3c:d2:b1:10:34:f8:b5:ca:d1:65:
        16:98:b2:aa:3a:7c:5c:53:27:11:03:8e:9a:22:e2:48:89:88:
        1e:e3:b2:cc:b7:de:11:72:d7:39:2c:40:0b:60:bb:c7:69:ae:
        7f:03:20:db:40:15:6d:ad:b3:e9:ae:10:a5:01:15:02:6a:ac:
        8e:53:ac:38:8a:f5:11:0b:56:f2:f8:ba:6f:2a:21:01:46:c0:
        a3:fb:2c:88:64:80:d6:f6:d8:cf:b2:2a:d6:db:44:bf:43:a3:
        67:a6:9b:f5:48:54:be:5e:d0:13:be:11:d6:71:82:9e:68:13:
        66:a0:16:f9:57:be:fd:b9:94:79:2e:30:74:03:32:bf:f4:ad:
        0f:4d:df:2e:90:19:53:25:4a:d0:3e:dc:d1:6c:10:2d:df:f0:
        c3:4a:a4:5c:b1:a3:80:de:10:d5:88:b1:c9:0f:50:9f:67:66:
        6d:20:2e:09
-----BEGIN CERTIFICATE REQUEST-----
MIIDKzCCAhMCAQAwWjELMAkGA1UEBhMCRlIxDDAKBgNVBAgTA0lERjEOMAwGA1UE
BxMFUGFyaXMxGTAXBgNVBAoTEEZha2UgQ0EgZm9yIFRlc3QxEjAQBgNVBAMTCU5v
ZGVPUENVQTCCASIwDQYJKoZIhvcNAQEBBQADggEPADCCAQoCggEBANOWYSwdGexS
jGRZ4Il1aMF/tDesvFUpG8zTnncDfmYP4K0ul9Hbo83JzFj2ginnPMJbLlcwS57W
dfIBmOz/PKtWnoyUP7DFNDwQo5QwMvGiGn+bIBoiAMdi1DBBsZKXvjHTEtGAVuVg
EhjSSCdz247U6cSxCsckMU96RPjoiDDWq3fiZLqhgwenv76lo8g7r+XLgQWdza6Y
Wz0jjMQPEAxV/xmDRasimQA4ZCtiioHVHrjCyHIiE1zfdZBiyKSMJpMrK4o/WbVN
jvmBzmi7cjRDB+kzAtN29aeTXKuSRtdzzvh+r5E3NGgulUkabD26TcXElAyfEEvQ
ULJeiXLN0s8CAwEAAaCBizCBiAYJKoZIhvcNAQkOMXsweTAMBgNVHRMBAf8EAjAA
MAsGA1UdDwQEAwID+DAPBgNVHREECDAGhgCCAIIAMEsGCWCGSAGG+EIBDQQ+FjxD
QSBHZW5lcmF0ZWQgYnkgTm9kZS1PUENVQSBDZXJ0aWZpY2F0ZSB1dGlsaXR5IHVz
aW5nIG9wZW5zc2wwDQYJKoZIhvcNAQEFBQADggEBABoUBvlVDrGAT+WmqfssOFdm
R6sZuZ1Ou6CMflIzb1YypbXotRi9k7wMQzM6NfJv8PDwvbeD83CuInJKR+c+owI2
l3jSXA1iKXPpbLxrpERqPNKxEDT4tcrRZRaYsqo6fFxTJxEDjpoi4kiJiB7jssy3
3hFy1zksQAtgu8dprn8DINtAFW2ts+muEKUBFQJqrI5TrDiK9RELVvL4um8qIQFG
wKP7LIhkgNb22M+yKtbbRL9Do2emm/VIVL5e0BO+EdZxgp5oE2agFvlXvv25lHku
MHQDMr/0rQ9N3y6QGVMlStA+3NFsEC3f8MNKpFyxo4DeENWIsckPUJ9nZm0gLgk=
-----END CERTIFICATE REQUEST-----
